(lp0
(ivenues
VenueType
p1
(dp2
S'name'
p3
S'Restaurants'
p4
sS'yelp_results'
p5
(lp6
(dp7
Vis_claimed
p8
I01
sVrating
p9
F4.5
sVmobile_url
p10
Vhttp://m.yelp.com/biz/queen-bee-cafe-seattle
p11
sVrating_img_url
p12
Vhttp://s3-media2.fl.yelpcdn.com/assets/2/www/img/99493c12711e/ico/stars/v1/stars_4_half.png
p13
sVreview_count
p14
I54
sVname
p15
VQueen Bee Cafe
p16
sVrating_img_url_small
p17
Vhttp://s3-media2.fl.yelpcdn.com/assets/2/www/img/a5221e66bc70/ico/stars/v1/stars_small_4_half.png
p18
sVurl
p19
Vhttp://www.yelp.com/biz/queen-bee-cafe-seattle
p20
sVis_closed
p21
I00
sVphone
p22
V2067576314
p23
sVsnippet_text
p24
VAahhhh I love this place. I LOVE IT. I wasn't expecting very much the first time I went (because it's attached to what I understand to be an old folks'...
p25
sVimage_url
p26
Vhttp://s3-media3.fl.yelpcdn.com/bphoto/CLRgVTTxrpMBIV0r__FxSg/ms.jpg
p27
sVcategories
p28
(lp29
(lp30
VCafes
p31
aVcafes
p32
aasVdisplay_phone
p33
V+1-206-757-6314
p34
sVrating_img_url_large
p35
Vhttp://s3-media4.fl.yelpcdn.com/assets/2/www/img/9f83790ff7f6/ico/stars/v1/stars_large_4_half.png
p36
sVid
p37
Vqueen-bee-cafe-seattle
p38
sVsnippet_image_url
p39
Vhttp://s3-media3.fl.yelpcdn.com/photo/ZPYxvcw6KCgf825AI4f5kg/ms.jpg
p40
sVlocation
p41
(dp42
Vcross_streets
p43
VE 22nd Ave & E 23rd Ave
p44
sVcity
p45
VSeattle
p46
sVdisplay_address
p47
(lp48
V2200 E Madison St
p49
aVSte B
p50
aVCentral District
p51
aVSeattle, WA 98112
p52
asVgeo_accuracy
p53
F8.0
sVneighborhoods
p54
(lp55
VCentral District
p56
aVCapitol Hill
p57
asVpostal_code
p58
V98112
p59
sVcountry_code
p60
VUS
p61
sVaddress
p62
(lp63
V2200 E Madison St
p64
aVSte B
p65
asVcoordinate
p66
(dp67
Vlatitude
p68
F47.6186051219702
sVlongitude
p69
F-122.303524240851
ssVstate_code
p70
VWA
p71
ssa(dp72
Vis_claimed
p73
I01
sVrating
p74
F4.5
sVmobile_url
p75
Vhttp://m.yelp.com/biz/arayas-place-seattle-3
p76
sVrating_img_url
p77
Vhttp://s3-media2.fl.yelpcdn.com/assets/2/www/img/99493c12711e/ico/stars/v1/stars_4_half.png
p78
sVreview_count
p79
I97
sVname
p80
VAraya's Place
p81
sVrating_img_url_small
p82
Vhttp://s3-media2.fl.yelpcdn.com/assets/2/www/img/a5221e66bc70/ico/stars/v1/stars_small_4_half.png
p83
sVurl
p84
Vhttp://www.yelp.com/biz/arayas-place-seattle-3
p85
sVis_closed
p86
I00
sVphone
p87
V2064026634
p88
sVsnippet_text
p89
VI know what you are thinking..."vegan?...hmmm not so sure about that."  Well think again.  This place is absolutely delicious.  I am not vegan, nor am I a...
p90
sVimage_url
p91
Vhttp://s3-media1.fl.yelpcdn.com/bphoto/8uemO__YYD_XgjzWa4K-Aw/ms.jpg
p92
sVcategories
p93
(lp94
(lp95
VThai
p96
aVthai
p97
aa(lp98
VVegan
p99
aVvegan
p100
aa(lp101
VVegetarian
p102
aVvegetarian
p103
aasVdisplay_phone
p104
V+1-206-402-6634
p105
sVrating_img_url_large
p106
Vhttp://s3-media4.fl.yelpcdn.com/assets/2/www/img/9f83790ff7f6/ico/stars/v1/stars_large_4_half.png
p107
sVid
p108
Varayas-place-seattle-3
p109
sVsnippet_image_url
p110
Vhttp://s3-media4.fl.yelpcdn.com/photo/WISUFJ1cJXNC60Z2u4roKA/ms.jpg
p111
sVlocation
p112
(dp113
Vcross_streets
p114
VMartin Luther King Jr Way & E 28th Ave
p115
sVcity
p116
VSeattle
p117
sVdisplay_address
p118
(lp119
V2808 E Madison St
p120
aVCapitol Hill
p121
aVSeattle, WA 98112
p122
asVgeo_accuracy
p123
F9.5
sVneighborhoods
p124
(lp125
VCapitol Hill
p126
asVpostal_code
p127
V98112
p128
sVcountry_code
p129
VUS
p130
sVaddress
p131
(lp132
V2808 E Madison St
p133
asVcoordinate
p134
(dp135
Vlatitude
p136
F47.6238626
sVlongitude
p137
F-122.2960954
ssVstate_code
p138
VWA
p139
ssa(dp140
Vis_claimed
p141
I00
sVrating
p142
F4.5
sVmobile_url
p143
Vhttp://m.yelp.com/biz/single-shot-seattle
p144
sVrating_img_url
p145
Vhttp://s3-media2.fl.yelpcdn.com/assets/2/www/img/99493c12711e/ico/stars/v1/stars_4_half.png
p146
sVreview_count
p147
I36
sVname
p148
VSingle Shot
p149
sVrating_img_url_small
p150
Vhttp://s3-media2.fl.yelpcdn.com/assets/2/www/img/a5221e66bc70/ico/stars/v1/stars_small_4_half.png
p151
sVurl
p152
Vhttp://www.yelp.com/biz/single-shot-seattle
p153
sVis_closed
p154
I00
sVsnippet_text
p155
VOne of the best restaurant experiences I have had. A bunch of us were on a road trip and decided to spend new years in Seattle. We found this place last...
p156
sVimage_url
p157
Vhttp://s3-media2.fl.yelpcdn.com/bphoto/95uPEHjJIPIqCG6gqnwmeg/ms.jpg
p158
sVcategories
p159
(lp160
(lp161
VBars
p162
aVbars
p163
aa(lp164
VAmerican (New)
p165
aVnewamerican
p166
aasVrating_img_url_large
p167
Vhttp://s3-media4.fl.yelpcdn.com/assets/2/www/img/9f83790ff7f6/ico/stars/v1/stars_large_4_half.png
p168
sVid
p169
Vsingle-shot-seattle
p170
sVsnippet_image_url
p171
Vhttp://s3-media1.fl.yelpcdn.com/photo/QjJIrzR2o-8Izb8BqcJprg/ms.jpg
p172
sVlocation
p173
(dp174
Vcross_streets
p175
VRoy St & Mercer St
p176
sVcity
p177
VSeattle
p178
sVdisplay_address
p179
(lp180
V611 Summit Ave E
p181
aVCapitol Hill
p182
aVSeattle, WA 98102
p183
asVgeo_accuracy
p184
F8.0
sVneighborhoods
p185
(lp186
VCapitol Hill
p187
asVpostal_code
p188
V98102
p189
sVcountry_code
p190
VUS
p191
sVaddress
p192
(lp193
V611 Summit Ave E
p194
asVcoordinate
p195
(dp196
Vlatitude
p197
F47.6246262
sVlongitude
p198
F-122.3254471
ssVstate_code
p199
VWA
p200
ssa(dp201
Vis_claimed
p202
I01
sVrating
p203
F4.5
sVmobile_url
p204
Vhttp://m.yelp.com/biz/hello-robin-seattle
p205
sVrating_img_url
p206
Vhttp://s3-media2.fl.yelpcdn.com/assets/2/www/img/99493c12711e/ico/stars/v1/stars_4_half.png
p207
sVreview_count
p208
I121
sVname
p209
VHello Robin
p210
sVrating_img_url_small
p211
Vhttp://s3-media2.fl.yelpcdn.com/assets/2/www/img/a5221e66bc70/ico/stars/v1/stars_small_4_half.png
p212
sVurl
p213
Vhttp://www.yelp.com/biz/hello-robin-seattle
p214
sVis_closed
p215
I00
sVphone
p216
V2067357970
p217
sVsnippet_text
p218
VIf Molly Moon is your bff, Hello Robin is Molly Moon on a joyride. Sharing the street with neighborhood beauties Tallulah and Cone & Steiner, Hello Robin is...
p219
sVimage_url
p220
Vhttp://s3-media4.fl.yelpcdn.com/bphoto/JdcY6W5Mr_ohr-lGdIyqlQ/ms.jpg
p221
sVcategories
p222
(lp223
(lp224
VBakeries
p225
aVbakeries
p226
aa(lp227
VCafes
p228
aVcafes
p229
aasVdisplay_phone
p230
V+1-206-735-7970
p231
sVrating_img_url_large
p232
Vhttp://s3-media4.fl.yelpcdn.com/assets/2/www/img/9f83790ff7f6/ico/stars/v1/stars_large_4_half.png
p233
sVid
p234
Vhello-robin-seattle
p235
sVsnippet_image_url
p236
Vhttp://s3-media1.fl.yelpcdn.com/photo/HioFFTAo2zFQmAFr9t6v-Q/ms.jpg
p237
sVlocation
p238
(dp239
Vcross_streets
p240
VRepublican St & Mercer St
p241
sVcity
p242
VSeattle
p243
sVdisplay_address
p244
(lp245
V522 19th Ave E
p246
aVCapitol Hill
p247
aVSeattle, WA 98112
p248
asVgeo_accuracy
p249
F8.0
sVneighborhoods
p250
(lp251
VCapitol Hill
p252
asVpostal_code
p253
V98112
p254
sVcountry_code
p255
VUS
p256
sVaddress
p257
(lp258
V522 19th Ave E
p259
asVcoordinate
p260
(dp261
Vlatitude
p262
F47.623955
sVlongitude
p263
F-122.306931
ssVstate_code
p264
VWA
p265
ssa(dp266
Vis_claimed
p267
I01
sVrating
p268
F4.5
sVmobile_url
p269
Vhttp://m.yelp.com/biz/seattle-salads-seattle
p270
sVrating_img_url
p271
Vhttp://s3-media2.fl.yelpcdn.com/assets/2/www/img/99493c12711e/ico/stars/v1/stars_4_half.png
p272
sVreview_count
p273
I43
sVname
p274
VSeattle Salads
p275
sVrating_img_url_small
p276
Vhttp://s3-media2.fl.yelpcdn.com/assets/2/www/img/a5221e66bc70/ico/stars/v1/stars_small_4_half.png
p277
sVurl
p278
Vhttp://www.yelp.com/biz/seattle-salads-seattle
p279
sVis_closed
p280
I00
sVid
p281
Vseattle-salads-seattle
p282
sVphone
p283
V2063246445
p284
sVsnippet_text
p285
VThe world needs more salad shops. And this one - I stumbled upon it and now, 6 months later, it's my go-to for a fresh, healthy, yum, filling meal....
p286
sVimage_url
p287
Vhttp://s3-media1.fl.yelpcdn.com/bphoto/gegiATDPIVYwaKcC1_BU6Q/ms.jpg
p288
sVcategories
p289
(lp290
(lp291
VSalad
p292
aVsalad
p293
aasVdisplay_phone
p294
V+1-206-324-6445
p295
sVrating_img_url_large
p296
Vhttp://s3-media4.fl.yelpcdn.com/assets/2/www/img/9f83790ff7f6/ico/stars/v1/stars_large_4_half.png
p297
sVmenu_provider
p298
Vsingle_platform
p299
sVmenu_date_updated
p300
I1423198148
sVsnippet_image_url
p301
Vhttp://s3-media3.fl.yelpcdn.com/photo/LkFM80o14ewA_mnXGW2Rxg/ms.jpg
p302
sVlocation
p303
(dp304
Vcross_streets
p305
VE 27th Ave & Martin Luther King Jr Way
p306
sVcity
p307
VSeattle
p308
sVdisplay_address
p309
(lp310
V2711 E Madison St
p311
aVMadison Valley
p312
aVSeattle, WA 98112
p313
asVgeo_accuracy
p314
F9.5
sVneighborhoods
p315
(lp316
VMadison Valley
p317
asVpostal_code
p318
V98112
p319
sVcountry_code
p320
VUS
p321
sVaddress
p322
(lp323
V2711 E Madison St
p324
asVcoordinate
p325
(dp326
Vlatitude
p327
F47.6225985
sVlongitude
p328
F-122.2966981
ssVstate_code
p329
VWA
p330
ssasba(ivenues
VenueType
p331
(dp332
g3
S'Cafes'
p333
sg5
(lp334
(dp335
Vis_claimed
p336
I01
sVrating
p337
F4.5
sVmobile_url
p338
Vhttp://m.yelp.com/biz/queen-bee-cafe-seattle
p339
sVrating_img_url
p340
Vhttp://s3-media2.fl.yelpcdn.com/assets/2/www/img/99493c12711e/ico/stars/v1/stars_4_half.png
p341
sVreview_count
p342
I54
sVname
p343
VQueen Bee Cafe
p344
sVrating_img_url_small
p345
Vhttp://s3-media2.fl.yelpcdn.com/assets/2/www/img/a5221e66bc70/ico/stars/v1/stars_small_4_half.png
p346
sVurl
p347
Vhttp://www.yelp.com/biz/queen-bee-cafe-seattle
p348
sVis_closed
p349
I00
sVphone
p350
V2067576314
p351
sVsnippet_text
p352
VAahhhh I love this place. I LOVE IT. I wasn't expecting very much the first time I went (because it's attached to what I understand to be an old folks'...
p353
sVimage_url
p354
Vhttp://s3-media3.fl.yelpcdn.com/bphoto/CLRgVTTxrpMBIV0r__FxSg/ms.jpg
p355
sVcategories
p356
(lp357
(lp358
VCafes
p359
aVcafes
p360
aasVdisplay_phone
p361
V+1-206-757-6314
p362
sVrating_img_url_large
p363
Vhttp://s3-media4.fl.yelpcdn.com/assets/2/www/img/9f83790ff7f6/ico/stars/v1/stars_large_4_half.png
p364
sVid
p365
Vqueen-bee-cafe-seattle
p366
sVsnippet_image_url
p367
Vhttp://s3-media3.fl.yelpcdn.com/photo/ZPYxvcw6KCgf825AI4f5kg/ms.jpg
p368
sVlocation
p369
(dp370
Vcross_streets
p371
VE 22nd Ave & E 23rd Ave
p372
sVcity
p373
VSeattle
p374
sVdisplay_address
p375
(lp376
V2200 E Madison St
p377
aVSte B
p378
aVCentral District
p379
aVSeattle, WA 98112
p380
asVgeo_accuracy
p381
F8.0
sVneighborhoods
p382
(lp383
VCentral District
p384
aVCapitol Hill
p385
asVpostal_code
p386
V98112
p387
sVcountry_code
p388
VUS
p389
sVaddress
p390
(lp391
V2200 E Madison St
p392
aVSte B
p393
asVcoordinate
p394
(dp395
Vlatitude
p396
F47.6186051219702
sVlongitude
p397
F-122.303524240851
ssVstate_code
p398
VWA
p399
ssa(dp400
Vis_claimed
p401
I01
sVrating
p402
F5.0
sVmobile_url
p403
Vhttp://m.yelp.com/biz/cafe-barjot-seattle
p404
sVrating_img_url
p405
Vhttp://s3-media1.fl.yelpcdn.com/assets/2/www/img/f1def11e4e79/ico/stars/v1/stars_5.png
p406
sVreview_count
p407
I28
sVname
p408
VCafe Barjot
p409
sVrating_img_url_small
p410
Vhttp://s3-media1.fl.yelpcdn.com/assets/2/www/img/c7623205d5cd/ico/stars/v1/stars_small_5.png
p411
sVurl
p412
Vhttp://www.yelp.com/biz/cafe-barjot-seattle
p413
sVis_closed
p414
I00
sVphone
p415
V2064575424
p416
sVsnippet_text
p417
VThis place is so cute! I love the neighborhood feel. My friend and I came here for lunch the other day, and I was so happy with our experience. The menu is...
p418
sVimage_url
p419
Vhttp://s3-media2.fl.yelpcdn.com/bphoto/CBK2-Y7o-JXsj9VMd6O7RQ/ms.jpg
p420
sVcategories
p421
(lp422
(lp423
VCoffee & Tea
p424
aVcoffee
p425
aa(lp426
VBakeries
p427
aVbakeries
p428
aa(lp429
VCafes
p430
aVcafes
p431
aasVdisplay_phone
p432
V+1-206-457-5424
p433
sVrating_img_url_large
p434
Vhttp://s3-media3.fl.yelpcdn.com/assets/2/www/img/22affc4e6c38/ico/stars/v1/stars_large_5.png
p435
sVid
p436
Vcafe-barjot-seattle
p437
sVsnippet_image_url
p438
Vhttp://s3-media4.fl.yelpcdn.com/photo/6KbZiPRswzuRRiLUIu5RBA/ms.jpg
p439
sVlocation
p440
(dp441
Vcross_streets
p442
VRoy St
p443
sVcity
p444
VSeattle
p445
sVdisplay_address
p446
(lp447
V711 Bellevue Ave E
p448
aVCapitol Hill
p449
aVSeattle, WA 98102
p450
asVgeo_accuracy
p451
F9.5
sVneighborhoods
p452
(lp453
VCapitol Hill
p454
asVpostal_code
p455
V98102
p456
sVcountry_code
p457
VUS
p458
sVaddress
p459
(lp460
V711 Bellevue Ave E
p461
asVcoordinate
p462
(dp463
Vlatitude
p464
F47.6253781
sVlongitude
p465
F-122.326854
ssVstate_code
p466
VWA
p467
ssa(dp468
Vis_claimed
p469
I00
sVrating
p470
F4.5
sVmobile_url
p471
Vhttp://m.yelp.com/biz/espresso-vivace-sidewalk-bar-seattle
p472
sVrating_img_url
p473
Vhttp://s3-media2.fl.yelpcdn.com/assets/2/www/img/99493c12711e/ico/stars/v1/stars_4_half.png
p474
sVreview_count
p475
I340
sVname
p476
VEspresso Vivace Sidewalk Bar
p477
sVrating_img_url_small
p478
Vhttp://s3-media2.fl.yelpcdn.com/assets/2/www/img/a5221e66bc70/ico/stars/v1/stars_small_4_half.png
p479
sVurl
p480
Vhttp://www.yelp.com/biz/espresso-vivace-sidewalk-bar-seattle
p481
sVis_closed
p482
I00
sVphone
p483
V2068605869
p484
sVsnippet_text
p485
VHere in Seattle for the month and going to get a massage in Capitol Hill area, being early, the massage place referred us to "Vivace"! Said it was the best...
p486
sVimage_url
p487
Vhttp://s3-media3.fl.yelpcdn.com/bphoto/qUPtmgR4OZtRlJQdCO8HIQ/ms.jpg
p488
sVcategories
p489
(lp490
(lp491
VCoffee & Tea
p492
aVcoffee
p493
aasVdisplay_phone
p494
V+1-206-860-5869
p495
sVrating_img_url_large
p496
Vhttp://s3-media4.fl.yelpcdn.com/assets/2/www/img/9f83790ff7f6/ico/stars/v1/stars_large_4_half.png
p497
sVid
p498
Vespresso-vivace-sidewalk-bar-seattle
p499
sVsnippet_image_url
p500
Vhttp://s3-media2.fl.yelpcdn.com/photo/Bix6QxjrtLWlPw9t3w-Ftg/ms.jpg
p501
sVlocation
p502
(dp503
Vcross_streets
p504
VThomas St & Harrison St
p505
sVcity
p506
VSeattle
p507
sVdisplay_address
p508
(lp509
V321 Broadway E
p510
aVCapitol Hill
p511
aVSeattle, WA 98102
p512
asVgeo_accuracy
p513
F8.0
sVneighborhoods
p514
(lp515
VCapitol Hill
p516
asVpostal_code
p517
V98102
p518
sVcountry_code
p519
VUS
p520
sVaddress
p521
(lp522
V321 Broadway E
p523
asVcoordinate
p524
(dp525
Vlatitude
p526
F47.6216583
sVlongitude
p527
F-122.3212967
ssVstate_code
p528
VWA
p529
ssa(dp530
Vis_claimed
p531
I01
sVrating
p532
F4.5
sVmobile_url
p533
Vhttp://m.yelp.com/biz/adas-technical-books-and-cafe-seattle
p534
sVrating_img_url
p535
Vhttp://s3-media2.fl.yelpcdn.com/assets/2/www/img/99493c12711e/ico/stars/v1/stars_4_half.png
p536
sVreview_count
p537
I86
sVname
p538
VAda's Technical Books and Cafe
p539
sVrating_img_url_small
p540
Vhttp://s3-media2.fl.yelpcdn.com/assets/2/www/img/a5221e66bc70/ico/stars/v1/stars_small_4_half.png
p541
sVurl
p542
Vhttp://www.yelp.com/biz/adas-technical-books-and-cafe-seattle
p543
sVis_closed
p544
I00
sVphone
p545
V2063221058
p546
sVsnippet_text
p547
VThis is a great local gem in the neighborhood. The bookstore specializes in scientific/technical (e.g. nerdiness) based of all kinds. It's actually quite a...
p548
sVimage_url
p549
Vhttp://s3-media1.fl.yelpcdn.com/bphoto/Or-rb4KDeTf-xeM2udMrBA/ms.jpg
p550
sVcategories
p551
(lp552
(lp553
VBookstores
p554
aVbookstores
p555
aa(lp556
VCafes
p557
aVcafes
p558
aasVdisplay_phone
p559
V+1-206-322-1058
p560
sVrating_img_url_large
p561
Vhttp://s3-media4.fl.yelpcdn.com/assets/2/www/img/9f83790ff7f6/ico/stars/v1/stars_large_4_half.png
p562
sVid
p563
Vadas-technical-books-and-cafe-seattle
p564
sVsnippet_image_url
p565
Vhttp://s3-media2.fl.yelpcdn.com/photo/lYzbQT2T7QA5p9gJKMOz7A/ms.jpg
p566
sVlocation
p567
(dp568
Vcross_streets
p569
VRepublican St & Harrison St
p570
sVcity
p571
VSeattle
p572
sVdisplay_address
p573
(lp574
V425 15th Ave E
p575
aVCapitol Hill
p576
aVSeattle, WA 98112
p577
asVgeo_accuracy
p578
F9.5
sVneighborhoods
p579
(lp580
VCapitol Hill
p581
asVpostal_code
p582
V98112
p583
sVcountry_code
p584
VUS
p585
sVaddress
p586
(lp587
V425 15th Ave E
p588
asVcoordinate
p589
(dp590
Vlatitude
p591
F47.6223585
sVlongitude
p592
F-122.3126743
ssVstate_code
p593
VWA
p594
ssa(dp595
Vis_claimed
p596
I00
sVrating
p597
F4.5
sVmobile_url
p598
Vhttp://m.yelp.com/biz/cafe-argento-seattle
p599
sVrating_img_url
p600
Vhttp://s3-media2.fl.yelpcdn.com/assets/2/www/img/99493c12711e/ico/stars/v1/stars_4_half.png
p601
sVreview_count
p602
I73
sVname
p603
VCafe Argento
p604
sVrating_img_url_small
p605
Vhttp://s3-media2.fl.yelpcdn.com/assets/2/www/img/a5221e66bc70/ico/stars/v1/stars_small_4_half.png
p606
sVurl
p607
Vhttp://www.yelp.com/biz/cafe-argento-seattle
p608
sVis_closed
p609
I00
sVphone
p610
V2063833295
p611
sVsnippet_text
p612
VFree street parking and great atmosphere. Many wall power outlets and free wifi. Personal touch and quality food. Gay or family - Mom and Dad friendly!...
p613
sVimage_url
p614
Vhttp://s3-media1.fl.yelpcdn.com/bphoto/CadSPRiL3CyhNZmXc3L-Tw/ms.jpg
p615
sVcategories
p616
(lp617
(lp618
VCoffee & Tea
p619
aVcoffee
p620
aa(lp621
VSandwiches
p622
aVsandwiches
p623
aasVdisplay_phone
p624
V+1-206-383-3295
p625
sVrating_img_url_large
p626
Vhttp://s3-media4.fl.yelpcdn.com/assets/2/www/img/9f83790ff7f6/ico/stars/v1/stars_large_4_half.png
p627
sVid
p628
Vcafe-argento-seattle
p629
sVsnippet_image_url
p630
Vhttp://s3-media3.fl.yelpcdn.com/photo/Sb4z89xf3gbxvenBTKoMqQ/ms.jpg
p631
sVlocation
p632
(dp633
Vcross_streets
p634
V11th Ave & 12th Ave
p635
sVcity
p636
VSeattle
p637
sVdisplay_address
p638
(lp639
V1125 E Olive St
p640
aVCapitol Hill
p641
aVSeattle, WA 98122
p642
asVgeo_accuracy
p643
F8.0
sVneighborhoods
p644
(lp645
VCapitol Hill
p646
asVpostal_code
p647
V98122
p648
sVcountry_code
p649
VUS
p650
sVaddress
p651
(lp652
V1125 E Olive St
p653
asVcoordinate
p654
(dp655
Vlatitude
p656
F47.616173
sVlongitude
p657
F-122.317276
ssVstate_code
p658
VWA
p659
ssasba(ivenues
VenueType
p660
(dp661
g3
S'Bars'
p662
sg5
(lp663
(dp664
Vis_claimed
p665
I00
sVrating
p666
F4.5
sVmobile_url
p667
Vhttp://m.yelp.com/biz/single-shot-seattle
p668
sVrating_img_url
p669
Vhttp://s3-media2.fl.yelpcdn.com/assets/2/www/img/99493c12711e/ico/stars/v1/stars_4_half.png
p670
sVreview_count
p671
I36
sVname
p672
VSingle Shot
p673
sVrating_img_url_small
p674
Vhttp://s3-media2.fl.yelpcdn.com/assets/2/www/img/a5221e66bc70/ico/stars/v1/stars_small_4_half.png
p675
sVurl
p676
Vhttp://www.yelp.com/biz/single-shot-seattle
p677
sVis_closed
p678
I00
sVsnippet_text
p679
VOne of the best restaurant experiences I have had. A bunch of us were on a road trip and decided to spend new years in Seattle. We found this place last...
p680
sVimage_url
p681
Vhttp://s3-media2.fl.yelpcdn.com/bphoto/95uPEHjJIPIqCG6gqnwmeg/ms.jpg
p682
sVcategories
p683
(lp684
(lp685
VBars
p686
aVbars
p687
aa(lp688
VAmerican (New)
p689
aVnewamerican
p690
aasVrating_img_url_large
p691
Vhttp://s3-media4.fl.yelpcdn.com/assets/2/www/img/9f83790ff7f6/ico/stars/v1/stars_large_4_half.png
p692
sVid
p693
Vsingle-shot-seattle
p694
sVsnippet_image_url
p695
Vhttp://s3-media1.fl.yelpcdn.com/photo/QjJIrzR2o-8Izb8BqcJprg/ms.jpg
p696
sVlocation
p697
(dp698
Vcross_streets
p699
VRoy St & Mercer St
p700
sVcity
p701
VSeattle
p702
sVdisplay_address
p703
(lp704
V611 Summit Ave E
p705
aVCapitol Hill
p706
aVSeattle, WA 98102
p707
asVgeo_accuracy
p708
F8.0
sVneighborhoods
p709
(lp710
VCapitol Hill
p711
asVpostal_code
p712
V98102
p713
sVcountry_code
p714
VUS
p715
sVaddress
p716
(lp717
V611 Summit Ave E
p718
asVcoordinate
p719
(dp720
Vlatitude
p721
F47.6246262
sVlongitude
p722
F-122.3254471
ssVstate_code
p723
VWA
p724
ssa(dp725
Vis_claimed
p726
I01
sVrating
p727
F4.5
sVmobile_url
p728
Vhttp://m.yelp.com/biz/bottlehouse-seattle
p729
sVrating_img_url
p730
Vhttp://s3-media2.fl.yelpcdn.com/assets/2/www/img/99493c12711e/ico/stars/v1/stars_4_half.png
p731
sVreview_count
p732
I157
sVname
p733
VBottlehouse
p734
sVrating_img_url_small
p735
Vhttp://s3-media2.fl.yelpcdn.com/assets/2/www/img/a5221e66bc70/ico/stars/v1/stars_small_4_half.png
p736
sVurl
p737
Vhttp://www.yelp.com/biz/bottlehouse-seattle
p738
sVis_closed
p739
I00
sVphone
p740
V2067087164
p741
sVsnippet_text
p742
VSo, even though we showed up late for a tasting, the staff here still made sure we received the full treatment that was presented to guests for the two...
p743
sVimage_url
p744
Vhttp://s3-media2.fl.yelpcdn.com/bphoto/cnx9UEXR3TIaApI6fnykQA/ms.jpg
p745
sVcategories
p746
(lp747
(lp748
VWine Bars
p749
aVwine_bars
p750
aa(lp751
VTapas/Small Plates
p752
aVtapasmallplates
p753
aasVdisplay_phone
p754
V+1-206-708-7164
p755
sVrating_img_url_large
p756
Vhttp://s3-media4.fl.yelpcdn.com/assets/2/www/img/9f83790ff7f6/ico/stars/v1/stars_large_4_half.png
p757
sVid
p758
Vbottlehouse-seattle
p759
sVsnippet_image_url
p760
Vhttp://s3-media4.fl.yelpcdn.com/photo/fwAHA7OCJrkmhsgPbGwRxw/ms.jpg
p761
sVlocation
p762
(dp763
Vcross_streets
p764
VUnion St & Pike St
p765
sVcity
p766
VSeattle
p767
sVdisplay_address
p768
(lp769
V1416 34th Ave
p770
aVMadrona
p771
aVSeattle, WA 98122
p772
asVgeo_accuracy
p773
F8.0
sVneighborhoods
p774
(lp775
VMadrona
p776
asVpostal_code
p777
V98122
p778
sVcountry_code
p779
VUS
p780
sVaddress
p781
(lp782
V1416 34th Ave
p783
asVcoordinate
p784
(dp785
Vlatitude
p786
F47.61346
sVlongitude
p787
F-122.28897
ssVstate_code
p788
VWA
p789
ssa(dp790
Vis_claimed
p791
I01
sVrating
p792
F4.5
sVmobile_url
p793
Vhttp://m.yelp.com/biz/altura-seattle
p794
sVrating_img_url
p795
Vhttp://s3-media2.fl.yelpcdn.com/assets/2/www/img/99493c12711e/ico/stars/v1/stars_4_half.png
p796
sVreview_count
p797
I240
sVname
p798
VAltura
p799
sVrating_img_url_small
p800
Vhttp://s3-media2.fl.yelpcdn.com/assets/2/www/img/a5221e66bc70/ico/stars/v1/stars_small_4_half.png
p801
sVurl
p802
Vhttp://www.yelp.com/biz/altura-seattle
p803
sVis_closed
p804
I00
sVid
p805
Valtura-seattle
p806
sVphone
p807
V2064026749
p808
sVsnippet_text
p809
VAltura is a great restaurant for special occasions and perfect if you don't want to be stuck in an appetizer-entree-dessert prix fixe menu as they allow you...
p810
sVimage_url
p811
Vhttp://s3-media2.fl.yelpcdn.com/bphoto/kPXdi_HoHv6yKPcb-BCbaA/ms.jpg
p812
sVcategories
p813
(lp814
(lp815
VItalian
p816
aVitalian
p817
aa(lp818
VSeafood
p819
aVseafood
p820
aasVdisplay_phone
p821
V+1-206-402-6749
p822
sVrating_img_url_large
p823
Vhttp://s3-media4.fl.yelpcdn.com/assets/2/www/img/9f83790ff7f6/ico/stars/v1/stars_large_4_half.png
p824
sVmenu_provider
p825
Vsingle_platform
p826
sVmenu_date_updated
p827
I1413266166
sVsnippet_image_url
p828
Vhttp://s3-media1.fl.yelpcdn.com/photo/Dml2JV7l-ZSNMWk2XLvcYw/ms.jpg
p829
sVlocation
p830
(dp831
Vcross_streets
p832
VMercer St & Roy St
p833
sVcity
p834
VSeattle
p835
sVdisplay_address
p836
(lp837
V617 Broadway E
p838
aVCapitol Hill
p839
aVSeattle, WA 98102
p840
asVgeo_accuracy
p841
F8.0
sVneighborhoods
p842
(lp843
VCapitol Hill
p844
asVpostal_code
p845
V98102
p846
sVcountry_code
p847
VUS
p848
sVaddress
p849
(lp850
V617 Broadway E
p851
asVcoordinate
p852
(dp853
Vlatitude
p854
F47.6248817
sVlongitude
p855
F-122.3211517
ssVstate_code
p856
VWA
p857
ssa(dp858
Vis_claimed
p859
I01
sVrating
p860
F4.5
sVmobile_url
p861
Vhttp://m.yelp.com/biz/pie-bar-seattle-2
p862
sVrating_img_url
p863
Vhttp://s3-media2.fl.yelpcdn.com/assets/2/www/img/99493c12711e/ico/stars/v1/stars_4_half.png
p864
sVreview_count
p865
I294
sVname
p866
VPie Bar
p867
sVrating_img_url_small
p868
Vhttp://s3-media2.fl.yelpcdn.com/assets/2/www/img/a5221e66bc70/ico/stars/v1/stars_small_4_half.png
p869
sVurl
p870
Vhttp://www.yelp.com/biz/pie-bar-seattle-2
p871
sVis_closed
p872
I00
sVphone
p873
V2062571459
p874
sVsnippet_text
p875
VThis place does two things: pies and drinks. And they do both pretty darn well. \u000a\u000aThe pies are a delicious and generous slice that are always served a la...
p876
sVimage_url
p877
Vhttp://s3-media4.fl.yelpcdn.com/bphoto/GPP6iUT7Gb6O05fxGOJiLg/ms.jpg
p878
sVcategories
p879
(lp880
(lp881
VCocktail Bars
p882
aVcocktailbars
p883
aa(lp884
VDesserts
p885
aVdesserts
p886
aasVdisplay_phone
p887
V+1-206-257-1459
p888
sVrating_img_url_large
p889
Vhttp://s3-media4.fl.yelpcdn.com/assets/2/www/img/9f83790ff7f6/ico/stars/v1/stars_large_4_half.png
p890
sVid
p891
Vpie-bar-seattle-2
p892
sVsnippet_image_url
p893
Vhttp://s3-media1.fl.yelpcdn.com/photo/_UWPOD02cxBIKKBsdwAYqQ/ms.jpg
p894
sVlocation
p895
(dp896
Vcross_streets
p897
VBellevue Ave & Melrose Ave
p898
sVcity
p899
VSeattle
p900
sVdisplay_address
p901
(lp902
V1361 E Olive Way
p903
aVCapitol Hill
p904
aVSeattle, WA 98122
p905
asVgeo_accuracy
p906
F9.5
sVneighborhoods
p907
(lp908
VCapitol Hill
p909
asVpostal_code
p910
V98122
p911
sVcountry_code
p912
VUS
p913
sVaddress
p914
(lp915
V1361 E Olive Way
p916
asVcoordinate
p917
(dp918
Vlatitude
p919
F47.6168122
sVlongitude
p920
F-122.3274386
ssVstate_code
p921
VWA
p922
ssa(dp923
Vis_claimed
p924
I01
sVrating
p925
F4.5
sVmobile_url
p926
Vhttp://m.yelp.com/biz/sun-liquor-seattle
p927
sVrating_img_url
p928
Vhttp://s3-media2.fl.yelpcdn.com/assets/2/www/img/99493c12711e/ico/stars/v1/stars_4_half.png
p929
sVreview_count
p930
I289
sVname
p931
VSun Liquor
p932
sVrating_img_url_small
p933
Vhttp://s3-media2.fl.yelpcdn.com/assets/2/www/img/a5221e66bc70/ico/stars/v1/stars_small_4_half.png
p934
sVurl
p935
Vhttp://www.yelp.com/biz/sun-liquor-seattle
p936
sVis_closed
p937
I00
sVphone
p938
V2068601130
p939
sVsnippet_text
p940
VIs there anything bad to say about this place?!\u000a\u000aThe atmosphere is fun, and just about as awesome as their drink menu. I come here frequently with my wife...
p941
sVimage_url
p942
Vhttp://s3-media2.fl.yelpcdn.com/bphoto/1QyNOgsDoKXWXdU5--n36w/ms.jpg
p943
sVcategories
p944
(lp945
(lp946
VLounges
p947
aVlounges
p948
aa(lp949
VCocktail Bars
p950
aVcocktailbars
p951
aasVdisplay_phone
p952
V+1-206-860-1130
p953
sVrating_img_url_large
p954
Vhttp://s3-media4.fl.yelpcdn.com/assets/2/www/img/9f83790ff7f6/ico/stars/v1/stars_large_4_half.png
p955
sVid
p956
Vsun-liquor-seattle
p957
sVsnippet_image_url
p958
Vhttp://s3-media3.fl.yelpcdn.com/photo/5ZrR9Gji5ZkuD8M0yxEChw/ms.jpg
p959
sVlocation
p960
(dp961
Vcross_streets
p962
VMercer St & Roy St
p963
sVcity
p964
VSeattle
p965
sVdisplay_address
p966
(lp967
V607 Summit Ave E
p968
aVCapitol Hill
p969
aVSeattle, WA 98102
p970
asVgeo_accuracy
p971
F9.5
sVneighborhoods
p972
(lp973
VCapitol Hill
p974
asVpostal_code
p975
V98102
p976
sVcountry_code
p977
VUS
p978
sVaddress
p979
(lp980
V607 Summit Ave E
p981
asVcoordinate
p982
(dp983
Vlatitude
p984
F47.62460938971
sVlongitude
p985
F-122.32560712946
ssVstate_code
p986
VWA
p987
ssasba(ivenues
VenueType
p988
(dp989
g3
S'Nightclubs'
p990
sg5
(lp991
(dp992
Vis_claimed
p993
I01
sVrating
p994
F5.0
sVmobile_url
p995
Vhttp://m.yelp.com/biz/injoy-entertainment-seattle
p996
sVrating_img_url
p997
Vhttp://s3-media1.fl.yelpcdn.com/assets/2/www/img/f1def11e4e79/ico/stars/v1/stars_5.png
p998
sVreview_count
p999
I26
sVname
p1000
VInjoy Entertainment
p1001
sVrating_img_url_small
p1002
Vhttp://s3-media1.fl.yelpcdn.com/assets/2/www/img/c7623205d5cd/ico/stars/v1/stars_small_5.png
p1003
sVurl
p1004
Vhttp://www.yelp.com/biz/injoy-entertainment-seattle
p1005
sVis_closed
p1006
I00
sVphone
p1007
V2063108369
p1008
sVsnippet_text
p1009
VMy Wife and I recently got married in Seattle, WA and Injoy Entertainment did a spectacular job at our wedding.  Jason manages an outstanding business and...
p1010
sVimage_url
p1011
Vhttp://s3-media1.fl.yelpcdn.com/bphoto/1B-Drkbwcs6X11YttHIJ9g/ms.jpg
p1012
sVcategories
p1013
(lp1014
(lp1015
VDJs
p1016
aVdjs
p1017
aa(lp1018
VWedding Planning
p1019
aVwedding_planning
p1020
aa(lp1021
VParty Equipment Rentals
p1022
aVpartyequipmentrentals
p1023
aasVdisplay_phone
p1024
V+1-206-310-8369
p1025
sVrating_img_url_large
p1026
Vhttp://s3-media3.fl.yelpcdn.com/assets/2/www/img/22affc4e6c38/ico/stars/v1/stars_large_5.png
p1027
sVid
p1028
Vinjoy-entertainment-seattle
p1029
sVsnippet_image_url
p1030
Vhttp://s3-media4.fl.yelpcdn.com/assets/srv0/yelp_styleguide/cc4afe21892e/assets/img/default_avatars/user_medium_square.png
p1031
sVlocation
p1032
(dp1033
Vcross_streets
p1034
V24th St & Mercer Way
p1035
sVcity
p1036
VSeattle
p1037
sVdisplay_address
p1038
(lp1039
V2500 81st Ave SE
p1040
aVSte 312
p1041
aVSeattle, WA 98040
p1042
asVgeo_accuracy
p1043
F8.0
sVpostal_code
p1044
V98040
p1045
sVcountry_code
p1046
VUS
p1047
sVaddress
p1048
(lp1049
V2500 81st Ave SE
p1050
aVSte 312
p1051
asVcoordinate
p1052
(dp1053
Vlatitude
p1054
F47.588303
sVlongitude
p1055
F-122.230003
ssVstate_code
p1056
VWA
p1057
ssa(dp1058
Vis_claimed
p1059
I01
sVrating
p1060
F5.0
sVmobile_url
p1061
Vhttp://m.yelp.com/biz/wasound-seattle
p1062
sVrating_img_url
p1063
Vhttp://s3-media1.fl.yelpcdn.com/assets/2/www/img/f1def11e4e79/ico/stars/v1/stars_5.png
p1064
sVreview_count
p1065
I8
sVname
p1066
VwaSOUND
p1067
sVrating_img_url_small
p1068
Vhttp://s3-media1.fl.yelpcdn.com/assets/2/www/img/c7623205d5cd/ico/stars/v1/stars_small_5.png
p1069
sVurl
p1070
Vhttp://www.yelp.com/biz/wasound-seattle
p1071
sVis_closed
p1072
I00
sVphone
p1073
V4257535885
p1074
sVsnippet_text
p1075
VAWESOME!!!\u000a\u000aI hired Danny to DJ my New Year's Eve wedding. The music and the dance party portion of our event were very important to us, but we also wanted...
p1076
sVimage_url
p1077
Vhttp://s3-media2.fl.yelpcdn.com/bphoto/pfihY1TvJkU5hMcwXmREqg/ms.jpg
p1078
sVcategories
p1079
(lp1080
(lp1081
VDJs
p1082
aVdjs
p1083
aasVdisplay_phone
p1084
V+1-425-753-5885
p1085
sVrating_img_url_large
p1086
Vhttp://s3-media3.fl.yelpcdn.com/assets/2/www/img/22affc4e6c38/ico/stars/v1/stars_large_5.png
p1087
sVid
p1088
Vwasound-seattle
p1089
sVsnippet_image_url
p1090
Vhttp://s3-media1.fl.yelpcdn.com/photo/n3Qt3vwtqoZOaBajts6gzQ/ms.jpg
p1091
sVlocation
p1092
(dp1093
Vcity
p1094
VSeattle
p1095
sVdisplay_address
p1096
(lp1097
VDowntown
p1098
aVSeattle, WA 98101
p1099
asVgeo_accuracy
p1100
F5.0
sVneighborhoods
p1101
(lp1102
VDowntown
p1103
asVpostal_code
p1104
V98101
p1105
sVcountry_code
p1106
VUS
p1107
sVaddress
p1108
(lp1109
sVcoordinate
p1110
(dp1111
Vlatitude
p1112
F47.6110076904297
sVlongitude
p1113
F-122.333518981934
ssVstate_code
p1114
VWA
p1115
ssa(dp1116
Vis_claimed
p1117
I00
sVrating
p1118
F4.5
sVmobile_url
p1119
Vhttp://m.yelp.com/biz/emerald-city-soul-club-seattle
p1120
sVrating_img_url
p1121
Vhttp://s3-media2.fl.yelpcdn.com/assets/2/www/img/99493c12711e/ico/stars/v1/stars_4_half.png
p1122
sVreview_count
p1123
I19
sVname
p1124
VEmerald City Soul Club
p1125
sVrating_img_url_small
p1126
Vhttp://s3-media2.fl.yelpcdn.com/assets/2/www/img/a5221e66bc70/ico/stars/v1/stars_small_4_half.png
p1127
sVurl
p1128
Vhttp://www.yelp.com/biz/emerald-city-soul-club-seattle
p1129
sVis_closed
p1130
I00
sVsnippet_text
p1131
VI went a couple years ago and had a blast! Soul night was soo much fun :)\u000a\u000aIt's hard to determine if they still do soul night every second sat. of the month...
p1132
sVimage_url
p1133
Vhttp://s3-media1.fl.yelpcdn.com/bphoto/8d8CDIjwNf0htTWPhs9Huw/ms.jpg
p1134
sVcategories
p1135
(lp1136
(lp1137
VDance Clubs
p1138
aVdanceclubs
p1139
aasVrating_img_url_large
p1140
Vhttp://s3-media4.fl.yelpcdn.com/assets/2/www/img/9f83790ff7f6/ico/stars/v1/stars_large_4_half.png
p1141
sVid
p1142
Vemerald-city-soul-club-seattle
p1143
sVsnippet_image_url
p1144
Vhttp://s3-media1.fl.yelpcdn.com/photo/FLJ86WQ73cJYl56OLgHEcA/ms.jpg
p1145
sVlocation
p1146
(dp1147
Vcity
p1148
VSeattle
p1149
sVdisplay_address
p1150
(lp1151
VFirst Hill
p1152
aVSeattle, WA 98127
p1153
asVgeo_accuracy
p1154
F9.5
sVneighborhoods
p1155
(lp1156
VFirst Hill
p1157
asVpostal_code
p1158
V98127
p1159
sVcountry_code
p1160
VUS
p1161
sVaddress
p1162
(lp1163
sVcoordinate
p1164
(dp1165
Vlatitude
p1166
F47.6100018082742
sVlongitude
p1167
F-122.329997317791
ssVstate_code
p1168
VWA
p1169
ssa(dp1170
Vis_claimed
p1171
I01
sVrating
p1172
F4.0
sVmobile_url
p1173
Vhttp://m.yelp.com/biz/rock-box-seattle
p1174
sVrating_img_url
p1175
Vhttp://s3-media4.fl.yelpcdn.com/assets/2/www/img/c2f3dd9799a5/ico/stars/v1/stars_4.png
p1176
sVreview_count
p1177
I302
sVname
p1178
VRock Box
p1179
sVrating_img_url_small
p1180
Vhttp://s3-media4.fl.yelpcdn.com/assets/2/www/img/f62a5be2f902/ico/stars/v1/stars_small_4.png
p1181
sVurl
p1182
Vhttp://www.yelp.com/biz/rock-box-seattle
p1183
sVis_closed
p1184
I00
sVphone
p1185
V2063027625
p1186
sVsnippet_text
p1187
VHad a great time there with my friends!\u000aThe time does fly by and its great price for all the entertainment and its super clean!\u000aThe drinks actually have...
p1188
sVimage_url
p1189
Vhttp://s3-media3.fl.yelpcdn.com/bphoto/K9ckWtWv53dOsftMteBIvA/ms.jpg
p1190
sVcategories
p1191
(lp1192
(lp1193
VKaraoke
p1194
aVkaraoke
p1195
aa(lp1196
VBars
p1197
aVbars
p1198
aasVdisplay_phone
p1199
V+1-206-302-7625
p1200
sVrating_img_url_large
p1201
Vhttp://s3-media2.fl.yelpcdn.com/assets/2/www/img/ccf2b76faa2c/ico/stars/v1/stars_large_4.png
p1202
sVid
p1203
Vrock-box-seattle
p1204
sVsnippet_image_url
p1205
Vhttp://s3-media3.fl.yelpcdn.com/photo/4UBeTwZs1pOWn-pIL_Kvpw/ms.jpg
p1206
sVlocation
p1207
(dp1208
Vcity
p1209
VSeattle
p1210
sVdisplay_address
p1211
(lp1212
V1603 Nagle Pl
p1213
aVCapitol Hill
p1214
aVSeattle, WA 98122
p1215
asVgeo_accuracy
p1216
F8.0
sVneighborhoods
p1217
(lp1218
VCapitol Hill
p1219
asVpostal_code
p1220
V98122
p1221
sVcountry_code
p1222
VUS
p1223
sVaddress
p1224
(lp1225
V1603 Nagle Pl
p1226
asVcoordinate
p1227
(dp1228
Vlatitude
p1229
F47.6156311
sVlongitude
p1230
F-122.3202286
ssVstate_code
p1231
VWA
p1232
ssa(dp1233
Vis_claimed
p1234
I01
sVrating
p1235
F4.0
sVmobile_url
p1236
Vhttp://m.yelp.com/biz/the-showbox-seattle-2
p1237
sVrating_img_url
p1238
Vhttp://s3-media4.fl.yelpcdn.com/assets/2/www/img/c2f3dd9799a5/ico/stars/v1/stars_4.png
p1239
sVreview_count
p1240
I268
sVname
p1241
VThe Showbox
p1242
sVrating_img_url_small
p1243
Vhttp://s3-media4.fl.yelpcdn.com/assets/2/www/img/f62a5be2f902/ico/stars/v1/stars_small_4.png
p1244
sVurl
p1245
Vhttp://www.yelp.com/biz/the-showbox-seattle-2
p1246
sVis_closed
p1247
I00
sVphone
p1248
V2066283151
p1249
sVsnippet_text
p1250
VI went here a couple years ago to see The Maine, Augustana, and Austin Gibbs. It was a great show. The whole environment made my first concert experience a...
p1251
sVimage_url
p1252
Vhttp://s3-media2.fl.yelpcdn.com/bphoto/X5ntRhVB25OX9utR7pUgrQ/ms.jpg
p1253
sVcategories
p1254
(lp1255
(lp1256
VMusic Venues
p1257
aVmusicvenues
p1258
aa(lp1259
VBars
p1260
aVbars
p1261
aasVdisplay_phone
p1262
V+1-206-628-3151
p1263
sVrating_img_url_large
p1264
Vhttp://s3-media2.fl.yelpcdn.com/assets/2/www/img/ccf2b76faa2c/ico/stars/v1/stars_large_4.png
p1265
sVid
p1266
Vthe-showbox-seattle-2
p1267
sVsnippet_image_url
p1268
Vhttp://s3-media4.fl.yelpcdn.com/photo/uybg7uTlmldCTwcAbpkOHA/ms.jpg
p1269
sVlocation
p1270
(dp1271
Vcross_streets
p1272
VUnion St & Pike St
p1273
sVcity
p1274
VSeattle
p1275
sVdisplay_address
p1276
(lp1277
V1426 1st Ave
p1278
aVDowntown
p1279
aVSeattle, WA 98101
p1280
asVgeo_accuracy
p1281
F8.0
sVneighborhoods
p1282
(lp1283
VDowntown
p1284
asVpostal_code
p1285
V98101
p1286
sVcountry_code
p1287
VUS
p1288
sVaddress
p1289
(lp1290
V1426 1st Ave
p1291
asVcoordinate
p1292
(dp1293
Vlatitude
p1294
F47.6085091
sVlongitude
p1295
F-122.3394089
ssVstate_code
p1296
VWA
p1297
ssasba(ivenues
VenueType
p1298
(dp1299
g3
S'Gyms'
p1300
sg5
(lp1301
(dp1302
Vis_claimed
p1303
I01
sVrating
p1304
F5.0
sVmobile_url
p1305
Vhttp://m.yelp.com/biz/foundation-crossfit-seattle
p1306
sVrating_img_url
p1307
Vhttp://s3-media1.fl.yelpcdn.com/assets/2/www/img/f1def11e4e79/ico/stars/v1/stars_5.png
p1308
sVreview_count
p1309
I49
sVname
p1310
VFoundation CrossFit
p1311
sVrating_img_url_small
p1312
Vhttp://s3-media1.fl.yelpcdn.com/assets/2/www/img/c7623205d5cd/ico/stars/v1/stars_small_5.png
p1313
sVurl
p1314
Vhttp://www.yelp.com/biz/foundation-crossfit-seattle
p1315
sVis_closed
p1316
I00
sVphone
p1317
V2062990225
p1318
sVsnippet_text
p1319
VI am relatively new to crossfit, but I now completely understand why everyone says it's a cult...it's the best thing I've ever done!  I've been going to...
p1320
sVimage_url
p1321
Vhttp://s3-media1.fl.yelpcdn.com/bphoto/lhEckpi4C6Q4nMwib102aA/ms.jpg
p1322
sVcategories
p1323
(lp1324
(lp1325
VTrainers
p1326
aVhealthtrainers
p1327
aa(lp1328
VGyms
p1329
aVgyms
p1330
aasVdisplay_phone
p1331
V+1-206-299-0225
p1332
sVrating_img_url_large
p1333
Vhttp://s3-media3.fl.yelpcdn.com/assets/2/www/img/22affc4e6c38/ico/stars/v1/stars_large_5.png
p1334
sVid
p1335
Vfoundation-crossfit-seattle
p1336
sVsnippet_image_url
p1337
Vhttp://s3-media4.fl.yelpcdn.com/photo/tEcl2e7KMVlA7wQRLLJ3Eg/ms.jpg
p1338
sVlocation
p1339
(dp1340
Vcross_streets
p1341
VUnion St & Pike St
p1342
sVcity
p1343
VSeattle
p1344
sVdisplay_address
p1345
(lp1346
V1415 12th Ave
p1347
aVCapitol Hill
p1348
aVSeattle, WA 98122
p1349
asVgeo_accuracy
p1350
F8.0
sVneighborhoods
p1351
(lp1352
VCapitol Hill
p1353
asVpostal_code
p1354
V98122
p1355
sVcountry_code
p1356
VUS
p1357
sVaddress
p1358
(lp1359
V1415 12th Ave
p1360
asVcoordinate
p1361
(dp1362
Vlatitude
p1363
F47.6134796
sVlongitude
p1364
F-122.3170319
ssVstate_code
p1365
VWA
p1366
ssa(dp1367
Vis_claimed
p1368
I01
sVrating
p1369
F5.0
sVmobile_url
p1370
Vhttp://m.yelp.com/biz/emerald-city-crossfit-seattle
p1371
sVrating_img_url
p1372
Vhttp://s3-media1.fl.yelpcdn.com/assets/2/www/img/f1def11e4e79/ico/stars/v1/stars_5.png
p1373
sVreview_count
p1374
I23
sVname
p1375
VEmerald City CrossFit
p1376
sVrating_img_url_small
p1377
Vhttp://s3-media1.fl.yelpcdn.com/assets/2/www/img/c7623205d5cd/ico/stars/v1/stars_small_5.png
p1378
sVurl
p1379
Vhttp://www.yelp.com/biz/emerald-city-crossfit-seattle
p1380
sVis_closed
p1381
I00
sVphone
p1382
V2064091785
p1383
sVsnippet_text
p1384
VI've been coming to this gym off and on for a year and a half and I can't recommend it more highly! I was super skeptical of Crossfit before I joined as I...
p1385
sVimage_url
p1386
Vhttp://s3-media4.fl.yelpcdn.com/bphoto/Y8s16qxfrxGl1A8LdIJS3Q/ms.jpg
p1387
sVcategories
p1388
(lp1389
(lp1390
VGyms
p1391
aVgyms
p1392
aa(lp1393
VTrainers
p1394
aVhealthtrainers
p1395
aasVdisplay_phone
p1396
V+1-206-409-1785
p1397
sVrating_img_url_large
p1398
Vhttp://s3-media3.fl.yelpcdn.com/assets/2/www/img/22affc4e6c38/ico/stars/v1/stars_large_5.png
p1399
sVid
p1400
Vemerald-city-crossfit-seattle
p1401
sVsnippet_image_url
p1402
Vhttp://s3-media2.fl.yelpcdn.com/photo/7xXGKeMHCHZf63kMZxI5wg/ms.jpg
p1403
sVlocation
p1404
(dp1405
Vcross_streets
p1406
VE 24th Ave & E 23rd Ave
p1407
sVcity
p1408
VSeattle
p1409
sVdisplay_address
p1410
(lp1411
V2308 E Madison Ave
p1412
aVMadison Valley
p1413
aVSeattle, WA 98112
p1414
asVgeo_accuracy
p1415
F8.0
sVneighborhoods
p1416
(lp1417
VMadison Valley
p1418
aVCapitol Hill
p1419
asVpostal_code
p1420
V98112
p1421
sVcountry_code
p1422
VUS
p1423
sVaddress
p1424
(lp1425
V2308 E Madison Ave
p1426
asVcoordinate
p1427
(dp1428
Vlatitude
p1429
F47.6194419711828
sVlongitude
p1430
F-122.302248850465
ssVstate_code
p1431
VWA
p1432
ssa(dp1433
Vis_claimed
p1434
I00
sVrating
p1435
F5.0
sVmobile_url
p1436
Vhttp://m.yelp.com/biz/howe-street-stairs-seattle
p1437
sVrating_img_url
p1438
Vhttp://s3-media1.fl.yelpcdn.com/assets/2/www/img/f1def11e4e79/ico/stars/v1/stars_5.png
p1439
sVreview_count
p1440
I14
sVname
p1441
VHowe Street Stairs
p1442
sVrating_img_url_small
p1443
Vhttp://s3-media1.fl.yelpcdn.com/assets/2/www/img/c7623205d5cd/ico/stars/v1/stars_small_5.png
p1444
sVurl
p1445
Vhttp://www.yelp.com/biz/howe-street-stairs-seattle
p1446
sVis_closed
p1447
I00
sVsnippet_text
p1448
VI mean, the five stars I'm giving this are really five stars of WANTING TO DIE. Not, like, five stars of super fun awesome times or anything.\u000a\u000aThese stairs...
p1449
sVimage_url
p1450
Vhttp://s3-media3.fl.yelpcdn.com/bphoto/bkYOP1vRwmL5DGrtNz6Vww/ms.jpg
p1451
sVcategories
p1452
(lp1453
(lp1454
VGyms
p1455
aVgyms
p1456
aasVrating_img_url_large
p1457
Vhttp://s3-media3.fl.yelpcdn.com/assets/2/www/img/22affc4e6c38/ico/stars/v1/stars_large_5.png
p1458
sVid
p1459
Vhowe-street-stairs-seattle
p1460
sVsnippet_image_url
p1461
Vhttp://s3-media1.fl.yelpcdn.com/photo/SJQMjAVkr_6QAQl6iZEn6A/ms.jpg
p1462
sVlocation
p1463
(dp1464
Vcross_streets
p1465
VE Lakeview Blvd & E Broadway
p1466
sVcity
p1467
VSeattle
p1468
sVdisplay_address
p1469
(lp1470
V810 E Howe St
p1471
aVCapitol Hill
p1472
aVSeattle, WA 98102
p1473
asVgeo_accuracy
p1474
F8.0
sVneighborhoods
p1475
(lp1476
VCapitol Hill
p1477
asVpostal_code
p1478
V98102
p1479
sVcountry_code
p1480
VUS
p1481
sVaddress
p1482
(lp1483
V810 E Howe St
p1484
asVcoordinate
p1485
(dp1486
Vlatitude
p1487
F47.6360664
sVlongitude
p1488
F-122.3221817
ssVstate_code
p1489
VWA
p1490
ssa(dp1491
Vis_claimed
p1492
I01
sVrating
p1493
F4.5
sVmobile_url
p1494
Vhttp://m.yelp.com/biz/anytime-fitness-seattle
p1495
sVrating_img_url
p1496
Vhttp://s3-media2.fl.yelpcdn.com/assets/2/www/img/99493c12711e/ico/stars/v1/stars_4_half.png
p1497
sVreview_count
p1498
I84
sVname
p1499
VAnytime Fitness
p1500
sVrating_img_url_small
p1501
Vhttp://s3-media2.fl.yelpcdn.com/assets/2/www/img/a5221e66bc70/ico/stars/v1/stars_small_4_half.png
p1502
sVurl
p1503
Vhttp://www.yelp.com/biz/anytime-fitness-seattle
p1504
sVis_closed
p1505
I00
sVphone
p1506
V2065454348
p1507
sVsnippet_text
p1508
VI can't express how much I MISS this gym. Every time I see it, its like walking away from a bad regret in life. Since then I've hopped to two other gyms...
p1509
sVimage_url
p1510
Vhttp://s3-media1.fl.yelpcdn.com/bphoto/zndMmTGBbA0lTnPmt9_5ww/ms.jpg
p1511
sVcategories
p1512
(lp1513
(lp1514
VGyms
p1515
aVgyms
p1516
aa(lp1517
VTrainers
p1518
aVhealthtrainers
p1519
aasVdisplay_phone
p1520
V+1-206-545-4348
p1521
sVrating_img_url_large
p1522
Vhttp://s3-media4.fl.yelpcdn.com/assets/2/www/img/9f83790ff7f6/ico/stars/v1/stars_large_4_half.png
p1523
sVid
p1524
Vanytime-fitness-seattle
p1525
sVsnippet_image_url
p1526
Vhttp://s3-media4.fl.yelpcdn.com/photo/eOt7baX60wKZ7IGs8aDXiw/ms.jpg
p1527
sVlocation
p1528
(dp1529
Vcross_streets
p1530
VN Aurora Ave & N Fremont Ave
p1531
sVcity
p1532
VSeattle
p1533
sVdisplay_address
p1534
(lp1535
V837 North 34th Street
p1536
aVSuite 220
p1537
aVFremont
p1538
aVSeattle, WA 98103
p1539
asVgeo_accuracy
p1540
F8.0
sVneighborhoods
p1541
(lp1542
VFremont
p1543
asVpostal_code
p1544
V98103
p1545
sVcountry_code
p1546
VUS
p1547
sVaddress
p1548
(lp1549
V837 North 34th Street
p1550
aVSuite 220
p1551
asVcoordinate
p1552
(dp1553
Vlatitude
p1554
F47.6489601
sVlongitude
p1555
F-122.3480377
ssVstate_code
p1556
VWA
p1557
ssa(dp1558
Vis_claimed
p1559
I01
sVrating
p1560
F4.5
sVmobile_url
p1561
Vhttp://m.yelp.com/biz/barre3-seattle
p1562
sVrating_img_url
p1563
Vhttp://s3-media2.fl.yelpcdn.com/assets/2/www/img/99493c12711e/ico/stars/v1/stars_4_half.png
p1564
sVreview_count
p1565
I45
sVname
p1566
Vbarre3
p1567
sVrating_img_url_small
p1568
Vhttp://s3-media2.fl.yelpcdn.com/assets/2/www/img/a5221e66bc70/ico/stars/v1/stars_small_4_half.png
p1569
sVurl
p1570
Vhttp://www.yelp.com/biz/barre3-seattle
p1571
sVis_closed
p1572
I00
sVphone
p1573
V2062571694
p1574
sVsnippet_text
p1575
VLove barre3! Their staff, studio and the whole philosophy is amazing.  I never felt pressured to be THE best, just MY best.   \u000a\u000aAfter class I loved the...
p1576
sVimage_url
p1577
Vhttp://s3-media4.fl.yelpcdn.com/bphoto/A9irJlOzhG-ltZFndTlX0A/ms.jpg
p1578
sVcategories
p1579
(lp1580
(lp1581
VGyms
p1582
aVgyms
p1583
aa(lp1584
VBarre Classes
p1585
aVbarreclasses
p1586
aasVdisplay_phone
p1587
V+1-206-257-1694
p1588
sVrating_img_url_large
p1589
Vhttp://s3-media4.fl.yelpcdn.com/assets/2/www/img/9f83790ff7f6/ico/stars/v1/stars_large_4_half.png
p1590
sVid
p1591
Vbarre3-seattle
p1592
sVsnippet_image_url
p1593
Vhttp://s3-media1.fl.yelpcdn.com/photo/uSN5b9MS1dI03OJ0QviQDw/ms.jpg
p1594
sVlocation
p1595
(dp1596
Vcross_streets
p1597
VUnion St & Pike St
p1598
sVcity
p1599
VSeattle
p1600
sVdisplay_address
p1601
(lp1602
V1404 12th Ave
p1603
aVCentral District
p1604
aVSeattle, WA 98122
p1605
asVgeo_accuracy
p1606
F8.0
sVneighborhoods
p1607
(lp1608
VCentral District
p1609
aVCapitol Hill
p1610
asVpostal_code
p1611
V98122
p1612
sVcountry_code
p1613
VUS
p1614
sVaddress
p1615
(lp1616
V1404 12th Ave
p1617
asVcoordinate
p1618
(dp1619
Vlatitude
p1620
F47.6130422204733
sVlongitude
p1621
F-122.316722050309
ssVstate_code
p1622
VWA
p1623
ssasba(ivenues
VenueType
p1624
(dp1625
g3
S'Parks'
p1626
sg5
(lp1627
(dp1628
Vis_claimed
p1629
I00
sVrating
p1630
F4.5
sVmobile_url
p1631
Vhttp://m.yelp.com/biz/washington-park-arboretum-seattle-2
p1632
sVrating_img_url
p1633
Vhttp://s3-media2.fl.yelpcdn.com/assets/2/www/img/99493c12711e/ico/stars/v1/stars_4_half.png
p1634
sVreview_count
p1635
I130
sVname
p1636
VWashington Park Arboretum
p1637
sVrating_img_url_small
p1638
Vhttp://s3-media2.fl.yelpcdn.com/assets/2/www/img/a5221e66bc70/ico/stars/v1/stars_small_4_half.png
p1639
sVurl
p1640
Vhttp://www.yelp.com/biz/washington-park-arboretum-seattle-2
p1641
sVis_closed
p1642
I00
sVphone
p1643
V2065438800
p1644
sVsnippet_text
p1645
VWent in October during our visit. We couldn't stay long because we had show tickets, but it was so beautiful in the fall! The vibrant colors were...
p1646
sVimage_url
p1647
Vhttp://s3-media2.fl.yelpcdn.com/bphoto/A1j2ScLlgauQI8ksWSOrjg/ms.jpg
p1648
sVcategories
p1649
(lp1650
(lp1651
VParks
p1652
aVparks
p1653
aasVdisplay_phone
p1654
V+1-206-543-8800
p1655
sVrating_img_url_large
p1656
Vhttp://s3-media4.fl.yelpcdn.com/assets/2/www/img/9f83790ff7f6/ico/stars/v1/stars_large_4_half.png
p1657
sVid
p1658
Vwashington-park-arboretum-seattle-2
p1659
sVsnippet_image_url
p1660
Vhttp://s3-media2.fl.yelpcdn.com/photo/N62mLED32qxJap9_VmX_3w/ms.jpg
p1661
sVlocation
p1662
(dp1663
Vcity
p1664
VSeattle
p1665
sVdisplay_address
p1666
(lp1667
V2300 Arboretum Dr E
p1668
aVWashington Park
p1669
aVSeattle, WA 98112
p1670
asVgeo_accuracy
p1671
F8.0
sVneighborhoods
p1672
(lp1673
VWashington Park
p1674
asVpostal_code
p1675
V98112
p1676
sVcountry_code
p1677
VUS
p1678
sVaddress
p1679
(lp1680
V2300 Arboretum Dr E
p1681
asVcoordinate
p1682
(dp1683
Vlatitude
p1684
F47.6379988342524
sVlongitude
p1685
F-122.294075489044
ssVstate_code
p1686
VWA
p1687
ssa(dp1688
Vis_claimed
p1689
I00
sVrating
p1690
F4.5
sVmobile_url
p1691
Vhttp://m.yelp.com/biz/kerry-park-seattle
p1692
sVrating_img_url
p1693
Vhttp://s3-media2.fl.yelpcdn.com/assets/2/www/img/99493c12711e/ico/stars/v1/stars_4_half.png
p1694
sVreview_count
p1695
I487
sVname
p1696
VKerry Park
p1697
sVrating_img_url_small
p1698
Vhttp://s3-media2.fl.yelpcdn.com/assets/2/www/img/a5221e66bc70/ico/stars/v1/stars_small_4_half.png
p1699
sVurl
p1700
Vhttp://www.yelp.com/biz/kerry-park-seattle
p1701
sVis_closed
p1702
I00
sVphone
p1703
V2066844075
p1704
sVsnippet_text
p1705
VBeautiful, romantical, inspiring. Classic Seattle. What else is there to say?  \u000a\u000aBreathtaking views of Seattle and the Sound day or night. It's a great spot...
p1706
sVimage_url
p1707
Vhttp://s3-media2.fl.yelpcdn.com/bphoto/sj2Y2Ix32n-f4yMwFaB3tw/ms.jpg
p1708
sVcategories
p1709
(lp1710
(lp1711
VParks
p1712
aVparks
p1713
aa(lp1714
VPlaygrounds
p1715
aVplaygrounds
p1716
aasVdisplay_phone
p1717
V+1-206-684-4075
p1718
sVrating_img_url_large
p1719
Vhttp://s3-media4.fl.yelpcdn.com/assets/2/www/img/9f83790ff7f6/ico/stars/v1/stars_large_4_half.png
p1720
sVid
p1721
Vkerry-park-seattle
p1722
sVsnippet_image_url
p1723
Vhttp://s3-media4.fl.yelpcdn.com/photo/MSb0nJxJkZKSjBQSlBbdyw/ms.jpg
p1724
sVlocation
p1725
(dp1726
Vcity
p1727
VSeattle
p1728
sVdisplay_address
p1729
(lp1730
V211 W Highland Dr
p1731
aVLower Queen Anne
p1732
aVSeattle, WA 98127
p1733
asVgeo_accuracy
p1734
F8.0
sVneighborhoods
p1735
(lp1736
VLower Queen Anne
p1737
asVpostal_code
p1738
V98127
p1739
sVcountry_code
p1740
VUS
p1741
sVaddress
p1742
(lp1743
V211 W Highland Dr
p1744
asVcoordinate
p1745
(dp1746
Vlatitude
p1747
F47.6295290887356
sVlongitude
p1748
F-122.359552904963
ssVstate_code
p1749
VWA
p1750
ssa(dp1751
Vis_claimed
p1752
I00
sVrating
p1753
F4.5
sVmobile_url
p1754
Vhttp://m.yelp.com/biz/bhy-kracke-park-seattle
p1755
sVrating_img_url
p1756
Vhttp://s3-media2.fl.yelpcdn.com/assets/2/www/img/99493c12711e/ico/stars/v1/stars_4_half.png
p1757
sVreview_count
p1758
I41
sVname
p1759
VBhy Kracke Park
p1760
sVrating_img_url_small
p1761
Vhttp://s3-media2.fl.yelpcdn.com/assets/2/www/img/a5221e66bc70/ico/stars/v1/stars_small_4_half.png
p1762
sVurl
p1763
Vhttp://www.yelp.com/biz/bhy-kracke-park-seattle
p1764
sVis_closed
p1765
I00
sVphone
p1766
V2066844075
p1767
sVsnippet_text
p1768
VIf you've been to Kerry Park in Seattle and you like to take photos of Seattle Skyline, go to this park. It's a bit tricky to get here as the road is a dead...
p1769
sVimage_url
p1770
Vhttp://s3-media4.fl.yelpcdn.com/bphoto/1Ji7ZoPIMIi-6E9JC5mlZA/ms.jpg
p1771
sVcategories
p1772
(lp1773
(lp1774
VParks
p1775
aVparks
p1776
aasVdisplay_phone
p1777
V+1-206-684-4075
p1778
sVrating_img_url_large
p1779
Vhttp://s3-media4.fl.yelpcdn.com/assets/2/www/img/9f83790ff7f6/ico/stars/v1/stars_large_4_half.png
p1780
sVid
p1781
Vbhy-kracke-park-seattle
p1782
sVsnippet_image_url
p1783
Vhttp://s3-media2.fl.yelpcdn.com/photo/WuDpvDTk8XTZiuvoXVcyLQ/ms.jpg
p1784
sVlocation
p1785
(dp1786
Vcross_streets
p1787
VHighland Dr
p1788
sVcity
p1789
VSeattle
p1790
sVdisplay_address
p1791
(lp1792
V1215 5th Ave N
p1793
aVQueen Anne
p1794
aVSeattle, WA 98109
p1795
asVgeo_accuracy
p1796
F8.0
sVneighborhoods
p1797
(lp1798
VQueen Anne
p1799
asVpostal_code
p1800
V98109
p1801
sVcountry_code
p1802
VUS
p1803
sVaddress
p1804
(lp1805
V1215 5th Ave N
p1806
asVcoordinate
p1807
(dp1808
Vlatitude
p1809
F47.6301024109125
sVlongitude
p1810
F-122.347630485892
ssVstate_code
p1811
VWA
p1812
ssa(dp1813
Vis_claimed
p1814
I01
sVrating
p1815
F4.5
sVmobile_url
p1816
Vhttp://m.yelp.com/biz/volunteer-park-conservatory-seattle
p1817
sVrating_img_url
p1818
Vhttp://s3-media2.fl.yelpcdn.com/assets/2/www/img/99493c12711e/ico/stars/v1/stars_4_half.png
p1819
sVreview_count
p1820
I73
sVname
p1821
VVolunteer Park Conservatory
p1822
sVrating_img_url_small
p1823
Vhttp://s3-media2.fl.yelpcdn.com/assets/2/www/img/a5221e66bc70/ico/stars/v1/stars_small_4_half.png
p1824
sVurl
p1825
Vhttp://www.yelp.com/biz/volunteer-park-conservatory-seattle
p1826
sVis_closed
p1827
I00
sVphone
p1828
V2066844743
p1829
sVsnippet_text
p1830
VThe ray of sunshine in a rainy day...I have never seen so many beautifully kept gardens! The park is unimaginable, senior trees and rolling grounds so well...
p1831
sVimage_url
p1832
Vhttp://s3-media4.fl.yelpcdn.com/bphoto/DfUo1rUlsD1SwcXsU8ssGg/ms.jpg
p1833
sVcategories
p1834
(lp1835
(lp1836
VParks
p1837
aVparks
p1838
aa(lp1839
VBotanical Gardens
p1840
aVgardens
p1841
aasVdisplay_phone
p1842
V+1-206-684-4743
p1843
sVrating_img_url_large
p1844
Vhttp://s3-media4.fl.yelpcdn.com/assets/2/www/img/9f83790ff7f6/ico/stars/v1/stars_large_4_half.png
p1845
sVid
p1846
Vvolunteer-park-conservatory-seattle
p1847
sVsnippet_image_url
p1848
Vhttp://s3-media4.fl.yelpcdn.com/photo/h6UI7v5VmqJoCCfR3g6BAw/ms.jpg
p1849
sVlocation
p1850
(dp1851
Vcity
p1852
VSeattle
p1853
sVdisplay_address
p1854
(lp1855
V1400 E Galer St
p1856
aVCapitol Hill
p1857
aVSeattle, WA 98112
p1858
asVgeo_accuracy
p1859
F9.5
sVneighborhoods
p1860
(lp1861
VCapitol Hill
p1862
asVpostal_code
p1863
V98112
p1864
sVcountry_code
p1865
VUS
p1866
sVaddress
p1867
(lp1868
V1400 E Galer St
p1869
asVcoordinate
p1870
(dp1871
Vlatitude
p1872
F47.632116503182
sVlongitude
p1873
F-122.31573089665
ssVstate_code
p1874
VWA
p1875
ssa(dp1876
Vis_claimed
p1877
I00
sVrating
p1878
F4.5
sVmobile_url
p1879
Vhttp://m.yelp.com/biz/volunteer-park-seattle
p1880
sVrating_img_url
p1881
Vhttp://s3-media2.fl.yelpcdn.com/assets/2/www/img/99493c12711e/ico/stars/v1/stars_4_half.png
p1882
sVreview_count
p1883
I132
sVname
p1884
VVolunteer Park
p1885
sVrating_img_url_small
p1886
Vhttp://s3-media2.fl.yelpcdn.com/assets/2/www/img/a5221e66bc70/ico/stars/v1/stars_small_4_half.png
p1887
sVurl
p1888
Vhttp://www.yelp.com/biz/volunteer-park-seattle
p1889
sVis_closed
p1890
I00
sVphone
p1891
V2066844555
p1892
sVsnippet_text
p1893
VI spent a leisurely couple of hours at Volunteer Park for a post-wedding picnic for my friends Cody R. and Allison V. They brought tables full of fruit and...
p1894
sVimage_url
p1895
Vhttp://s3-media2.fl.yelpcdn.com/bphoto/y3sfY9sJ94uI7CR87qClbA/ms.jpg
p1896
sVcategories
p1897
(lp1898
(lp1899
VParks
p1900
aVparks
p1901
aa(lp1902
VPlaygrounds
p1903
aVplaygrounds
p1904
aasVdisplay_phone
p1905
V+1-206-684-4555
p1906
sVrating_img_url_large
p1907
Vhttp://s3-media4.fl.yelpcdn.com/assets/2/www/img/9f83790ff7f6/ico/stars/v1/stars_large_4_half.png
p1908
sVid
p1909
Vvolunteer-park-seattle
p1910
sVsnippet_image_url
p1911
Vhttp://s3-media2.fl.yelpcdn.com/photo/vwGA8W65E5OfKFtnO95fJw/ms.jpg
p1912
sVlocation
p1913
(dp1914
Vcity
p1915
VSeattle
p1916
sVdisplay_address
p1917
(lp1918
V1247 15th Ave E
p1919
aVCapitol Hill
p1920
aVSeattle, WA 98102
p1921
asVgeo_accuracy
p1922
F8.0
sVneighborhoods
p1923
(lp1924
VCapitol Hill
p1925
asVpostal_code
p1926
V98102
p1927
sVcountry_code
p1928
VUS
p1929
sVaddress
p1930
(lp1931
V1247 15th Ave E
p1932
asVcoordinate
p1933
(dp1934
Vlatitude
p1935
F47.6314278
sVlongitude
p1936
F-122.312645
ssVstate_code
p1937
VWA
p1938
ssasba(ivenues
VenueType
p1939
(dp1940
g3
S'Theaters'
p1941
sg5
(lp1942
(dp1943
Vis_claimed
p1944
I01
sVrating
p1945
F4.5
sVmobile_url
p1946
Vhttp://m.yelp.com/biz/chihuly-garden-and-glass-seattle-2
p1947
sVrating_img_url
p1948
Vhttp://s3-media2.fl.yelpcdn.com/assets/2/www/img/99493c12711e/ico/stars/v1/stars_4_half.png
p1949
sVreview_count
p1950
I577
sVname
p1951
VChihuly Garden and Glass
p1952
sVrating_img_url_small
p1953
Vhttp://s3-media2.fl.yelpcdn.com/assets/2/www/img/a5221e66bc70/ico/stars/v1/stars_small_4_half.png
p1954
sVurl
p1955
Vhttp://www.yelp.com/biz/chihuly-garden-and-glass-seattle-2
p1956
sVis_closed
p1957
I00
sVphone
p1958
V2067534940
p1959
sVsnippet_text
p1960
VI've been to so many museums and Chihuly has to be my top fav! Walking in was just breathtaking, every room I walked into I was in awe. You can't help but...
p1961
sVimage_url
p1962
Vhttp://s3-media4.fl.yelpcdn.com/bphoto/aDVAwSX-I6jFvYBcVwolhA/ms.jpg
p1963
sVcategories
p1964
(lp1965
(lp1966
VArt Galleries
p1967
aVgalleries
p1968
aa(lp1969
VMuseums
p1970
aVmuseums
p1971
aasVdisplay_phone
p1972
V+1-206-753-4940
p1973
sVrating_img_url_large
p1974
Vhttp://s3-media4.fl.yelpcdn.com/assets/2/www/img/9f83790ff7f6/ico/stars/v1/stars_large_4_half.png
p1975
sVid
p1976
Vchihuly-garden-and-glass-seattle-2
p1977
sVsnippet_image_url
p1978
Vhttp://s3-media3.fl.yelpcdn.com/photo/0848oj-vyVKHiGA2HvVwCg/ms.jpg
p1979
sVlocation
p1980
(dp1981
Vcity
p1982
VSeattle
p1983
sVdisplay_address
p1984
(lp1985
V305 Harrison St
p1986
aVLower Queen Anne
p1987
aVSeattle, WA 98109
p1988
asVgeo_accuracy
p1989
F9.5
sVneighborhoods
p1990
(lp1991
VLower Queen Anne
p1992
asVpostal_code
p1993
V98109
p1994
sVcountry_code
p1995
VUS
p1996
sVaddress
p1997
(lp1998
V305 Harrison St
p1999
asVcoordinate
p2000
(dp2001
Vlatitude
p2002
F47.6205673217773
sVlongitude
p2003
F-122.350357055664
ssVstate_code
p2004
VWA
p2005
ssa(dp2006
Vis_claimed
p2007
I00
sVrating
p2008
F4.5
sVmobile_url
p2009
Vhttp://m.yelp.com/biz/seattle-cinerama-theater-seattle
p2010
sVrating_img_url
p2011
Vhttp://s3-media2.fl.yelpcdn.com/assets/2/www/img/99493c12711e/ico/stars/v1/stars_4_half.png
p2012
sVreview_count
p2013
I405
sVname
p2014
VSeattle Cinerama Theater
p2015
sVrating_img_url_small
p2016
Vhttp://s3-media2.fl.yelpcdn.com/assets/2/www/img/a5221e66bc70/ico/stars/v1/stars_small_4_half.png
p2017
sVurl
p2018
Vhttp://www.yelp.com/biz/seattle-cinerama-theater-seattle
p2019
sVis_closed
p2020
I00
sVphone
p2021
V2064486680
p2022
sVsnippet_text
p2023
VFabulous theater and the chocolate popcorn is very unique! Once you enter, you get a whiff of the strong popcorn smell.\u000a\u000aI planned a group event here and...
p2024
sVimage_url
p2025
Vhttp://s3-media4.fl.yelpcdn.com/bphoto/Bt08lD96eJnatmaH2VtTsg/ms.jpg
p2026
sVcategories
p2027
(lp2028
(lp2029
VCinema
p2030
aVmovietheaters
p2031
aasVdisplay_phone
p2032
V+1-206-448-6680
p2033
sVrating_img_url_large
p2034
Vhttp://s3-media4.fl.yelpcdn.com/assets/2/www/img/9f83790ff7f6/ico/stars/v1/stars_large_4_half.png
p2035
sVid
p2036
Vseattle-cinerama-theater-seattle
p2037
sVsnippet_image_url
p2038
Vhttp://s3-media1.fl.yelpcdn.com/photo/LRj0MVcCuZY2xM2_8X5xOw/ms.jpg
p2039
sVlocation
p2040
(dp2041
Vcity
p2042
VSeattle
p2043
sVdisplay_address
p2044
(lp2045
V2100 4th Ave
p2046
aVBelltown
p2047
aVSeattle, WA 98121
p2048
asVgeo_accuracy
p2049
F8.0
sVneighborhoods
p2050
(lp2051
VBelltown
p2052
asVpostal_code
p2053
V98121
p2054
sVcountry_code
p2055
VUS
p2056
sVaddress
p2057
(lp2058
V2100 4th Ave
p2059
asVcoordinate
p2060
(dp2061
Vlatitude
p2062
F47.614201
sVlongitude
p2063
F-122.341354
ssVstate_code
p2064
VWA
p2065
ssa(dp2066
Vis_claimed
p2067
I01
sVrating
p2068
F4.5
sVmobile_url
p2069
Vhttp://m.yelp.com/biz/grand-hyatt-seattle-seattle
p2070
sVrating_img_url
p2071
Vhttp://s3-media2.fl.yelpcdn.com/assets/2/www/img/99493c12711e/ico/stars/v1/stars_4_half.png
p2072
sVreview_count
p2073
I235
sVname
p2074
VGrand Hyatt Seattle
p2075
sVrating_img_url_small
p2076
Vhttp://s3-media2.fl.yelpcdn.com/assets/2/www/img/a5221e66bc70/ico/stars/v1/stars_small_4_half.png
p2077
sVurl
p2078
Vhttp://www.yelp.com/biz/grand-hyatt-seattle-seattle
p2079
sVis_closed
p2080
I00
sVphone
p2081
V2067741234
p2082
sVsnippet_text
p2083
VNew year, new challenge. 150 reviews for 2015! Let's do this!\u000a\u000aI don't review a lot of hotels (I think this might even be my first one). So Grand Hyatt...
p2084
sVimage_url
p2085
Vhttp://s3-media1.fl.yelpcdn.com/bphoto/ZOyafGcy8blT98hngqJJtw/ms.jpg
p2086
sVcategories
p2087
(lp2088
(lp2089
VHotels
p2090
aVhotels
p2091
aa(lp2092
VVenues & Event Spaces
p2093
aVvenues
p2094
aasVdisplay_phone
p2095
V+1-206-774-1234
p2096
sVrating_img_url_large
p2097
Vhttp://s3-media4.fl.yelpcdn.com/assets/2/www/img/9f83790ff7f6/ico/stars/v1/stars_large_4_half.png
p2098
sVid
p2099
Vgrand-hyatt-seattle-seattle
p2100
sVsnippet_image_url
p2101
Vhttp://s3-media2.fl.yelpcdn.com/photo/Vh9cKtxr6pibzM3Rs0fD_Q/ms.jpg
p2102
sVlocation
p2103
(dp2104
Vcross_streets
p2105
V7th Ave & 8th Ave
p2106
sVcity
p2107
VSeattle
p2108
sVdisplay_address
p2109
(lp2110
V721 Pine St
p2111
aVDowntown
p2112
aVSeattle, WA 98101
p2113
asVgeo_accuracy
p2114
F9.5
sVneighborhoods
p2115
(lp2116
VDowntown
p2117
asVpostal_code
p2118
V98101
p2119
sVcountry_code
p2120
VUS
p2121
sVaddress
p2122
(lp2123
V721 Pine St
p2124
asVcoordinate
p2125
(dp2126
Vlatitude
p2127
F47.612564248403004
sVlongitude
p2128
F-122.33403121769
ssVstate_code
p2129
VWA
p2130
ssa(dp2131
Vis_claimed
p2132
I00
sVrating
p2133
F4.5
sVmobile_url
p2134
Vhttp://m.yelp.com/biz/seattle-international-film-festival-seattle
p2135
sVrating_img_url
p2136
Vhttp://s3-media2.fl.yelpcdn.com/assets/2/www/img/99493c12711e/ico/stars/v1/stars_4_half.png
p2137
sVreview_count
p2138
I20
sVname
p2139
VSeattle International Film Festival
p2140
sVrating_img_url_small
p2141
Vhttp://s3-media2.fl.yelpcdn.com/assets/2/www/img/a5221e66bc70/ico/stars/v1/stars_small_4_half.png
p2142
sVurl
p2143
Vhttp://www.yelp.com/biz/seattle-international-film-festival-seattle
p2144
sVis_closed
p2145
I00
sVphone
p2146
V2063822434
p2147
sVsnippet_text
p2148
VI've watched some great films such as "Food Inc" and "Diana Vreeland: The Eye Has to Travel" over the years. I enjoy independent films so I like this event....
p2149
sVimage_url
p2150
Vhttp://s3-media1.fl.yelpcdn.com/bphoto/TWqAx02pN8uKH8kFwYQ6xg/ms.jpg
p2151
sVcategories
p2152
(lp2153
(lp2154
VFestivals
p2155
aVfestivals
p2156
aa(lp2157
VCinema
p2158
aVmovietheaters
p2159
aasVdisplay_phone
p2160
V+1-206-382-2434
p2161
sVrating_img_url_large
p2162
Vhttp://s3-media4.fl.yelpcdn.com/assets/2/www/img/9f83790ff7f6/ico/stars/v1/stars_large_4_half.png
p2163
sVid
p2164
Vseattle-international-film-festival-seattle
p2165
sVsnippet_image_url
p2166
Vhttp://s3-media2.fl.yelpcdn.com/photo/DNxJT3iIhDIubgxtKDQ-yg/ms.jpg
p2167
sVlocation
p2168
(dp2169
Vcity
p2170
VSeattle
p2171
sVdisplay_address
p2172
(lp2173
VSeattle Center/Northwest Rooms
p2174
aV305 Harrison St
p2175
aVLower Queen Anne
p2176
aVSeattle, WA 98109
p2177
asVgeo_accuracy
p2178
F8.0
sVneighborhoods
p2179
(lp2180
VLower Queen Anne
p2181
asVpostal_code
p2182
V98109
p2183
sVcountry_code
p2184
VUS
p2185
sVaddress
p2186
(lp2187
VSeattle Center/Northwest Rooms
p2188
aV305 Harrison St
p2189
asVcoordinate
p2190
(dp2191
Vlatitude
p2192
F47.62212
sVlongitude
p2193
F-122.354042
ssVstate_code
p2194
VWA
p2195
ssa(dp2196
Vis_claimed
p2197
I00
sVrating
p2198
F4.5
sVmobile_url
p2199
Vhttp://m.yelp.com/biz/big-picture-seattle
p2200
sVrating_img_url
p2201
Vhttp://s3-media2.fl.yelpcdn.com/assets/2/www/img/99493c12711e/ico/stars/v1/stars_4_half.png
p2202
sVreview_count
p2203
I240
sVname
p2204
VBig Picture
p2205
sVrating_img_url_small
p2206
Vhttp://s3-media2.fl.yelpcdn.com/assets/2/www/img/a5221e66bc70/ico/stars/v1/stars_small_4_half.png
p2207
sVurl
p2208
Vhttp://www.yelp.com/biz/big-picture-seattle
p2209
sVis_closed
p2210
I00
sVphone
p2211
V2062560566
p2212
sVsnippet_text
p2213
VCozy, comfy theater, with new movies, cup holders for cocktails, and food service to your seat.\u000a\u000aThis place is a bit extravagant but it is also a total...
p2214
sVimage_url
p2215
Vhttp://s3-media1.fl.yelpcdn.com/bphoto/XdU7dXHqprqzg4dqSJwngA/ms.jpg
p2216
sVcategories
p2217
(lp2218
(lp2219
VCinema
p2220
aVmovietheaters
p2221
aa(lp2222
VLounges
p2223
aVlounges
p2224
aa(lp2225
VVenues & Event Spaces
p2226
aVvenues
p2227
aasVdisplay_phone
p2228
V+1-206-256-0566
p2229
sVrating_img_url_large
p2230
Vhttp://s3-media4.fl.yelpcdn.com/assets/2/www/img/9f83790ff7f6/ico/stars/v1/stars_large_4_half.png
p2231
sVid
p2232
Vbig-picture-seattle
p2233
sVsnippet_image_url
p2234
Vhttp://s3-media2.fl.yelpcdn.com/photo/aNXeysEy0xz6mAUgv9VD7Q/ms.jpg
p2235
sVlocation
p2236
(dp2237
Vcross_streets
p2238
VWall St & Vine St
p2239
sVcity
p2240
VSeattle
p2241
sVdisplay_address
p2242
(lp2243
V2505 1st Ave
p2244
aVBelltown
p2245
aVSeattle, WA 98121
p2246
asVgeo_accuracy
p2247
F8.0
sVneighborhoods
p2248
(lp2249
VBelltown
p2250
asVpostal_code
p2251
V98121
p2252
sVcountry_code
p2253
VUS
p2254
sVaddress
p2255
(lp2256
V2505 1st Ave
p2257
asVcoordinate
p2258
(dp2259
Vlatitude
p2260
F47.6147816330194
sVlongitude
p2261
F-122.349002435803
ssVstate_code
p2262
VWA
p2263
ssasba(ivenues
VenueType
p2264
(dp2265
g3
S'Markets'
p2266
sg5
(lp2267
(dp2268
Vis_claimed
p2269
I00
sVrating
p2270
F5.0
sVmobile_url
p2271
Vhttp://m.yelp.com/biz/vine-st-market-seattle
p2272
sVrating_img_url
p2273
Vhttp://s3-media1.fl.yelpcdn.com/assets/2/www/img/f1def11e4e79/ico/stars/v1/stars_5.png
p2274
sVreview_count
p2275
I24
sVname
p2276
VVine St. Market
p2277
sVrating_img_url_small
p2278
Vhttp://s3-media1.fl.yelpcdn.com/assets/2/www/img/c7623205d5cd/ico/stars/v1/stars_small_5.png
p2279
sVurl
p2280
Vhttp://www.yelp.com/biz/vine-st-market-seattle
p2281
sVis_closed
p2282
I00
sVsnippet_text
p2283
VLittle market with one specialty - BEER! My boyfriend and I are never moving out of Belltown. \u000a\u000aProbably one of the hugest selection of craft beers in a...
p2284
sVimage_url
p2285
Vhttp://s3-media2.fl.yelpcdn.com/bphoto/7CdUKKLqjaoWLF0SJe_kSQ/ms.jpg
p2286
sVcategories
p2287
(lp2288
(lp2289
VBeer, Wine & Spirits
p2290
aVbeer_and_wine
p2291
aasVrating_img_url_large
p2292
Vhttp://s3-media3.fl.yelpcdn.com/assets/2/www/img/22affc4e6c38/ico/stars/v1/stars_large_5.png
p2293
sVid
p2294
Vvine-st-market-seattle
p2295
sVsnippet_image_url
p2296
Vhttp://s3-media1.fl.yelpcdn.com/photo/kvFPD08_ZUYLp0GhSvf36w/ms.jpg
p2297
sVlocation
p2298
(dp2299
Vcross_streets
p2300
VTaylor Ave & 5th Ave
p2301
sVcity
p2302
VSeattle
p2303
sVdisplay_address
p2304
(lp2305
V425 Vine St
p2306
aVBelltown
p2307
aVSeattle, WA 98121
p2308
asVgeo_accuracy
p2309
F9.5
sVneighborhoods
p2310
(lp2311
VBelltown
p2312
asVpostal_code
p2313
V98121
p2314
sVcountry_code
p2315
VUS
p2316
sVaddress
p2317
(lp2318
V425 Vine St
p2319
asVcoordinate
p2320
(dp2321
Vlatitude
p2322
F47.617562
sVlongitude
p2323
F-122.3462
ssVstate_code
p2324
VWA
p2325
ssa(dp2326
Vis_claimed
p2327
I00
sVrating
p2328
F4.5
sVmobile_url
p2329
Vhttp://m.yelp.com/biz/pike-place-market-seattle
p2330
sVrating_img_url
p2331
Vhttp://s3-media2.fl.yelpcdn.com/assets/2/www/img/99493c12711e/ico/stars/v1/stars_4_half.png
p2332
sVreview_count
p2333
I2448
sVname
p2334
VPike Place Market
p2335
sVrating_img_url_small
p2336
Vhttp://s3-media2.fl.yelpcdn.com/assets/2/www/img/a5221e66bc70/ico/stars/v1/stars_small_4_half.png
p2337
sVurl
p2338
Vhttp://www.yelp.com/biz/pike-place-market-seattle
p2339
sVis_closed
p2340
I00
sVphone
p2341
V2066827453
p2342
sVsnippet_text
p2343
V+Diversity of shops\u000a+Healthy competition to choose from (ie 4 oil shops)\u000a+Lots of historic Seattle go to's\u000a+Diversity of culture, truly reflects...
p2344
sVimage_url
p2345
Vhttp://s3-media3.fl.yelpcdn.com/bphoto/tGwUxxoiCKvD3mpsrr8W6g/ms.jpg
p2346
sVcategories
p2347
(lp2348
(lp2349
VFruits & Veggies
p2350
aVmarkets
p2351
aa(lp2352
VFarmers Market
p2353
aVfarmersmarket
p2354
aasVdisplay_phone
p2355
V+1-206-682-7453
p2356
sVrating_img_url_large
p2357
Vhttp://s3-media4.fl.yelpcdn.com/assets/2/www/img/9f83790ff7f6/ico/stars/v1/stars_large_4_half.png
p2358
sVid
p2359
Vpike-place-market-seattle
p2360
sVsnippet_image_url
p2361
Vhttp://s3-media1.fl.yelpcdn.com/photo/BHm9l9IBXLcoEyV6pJUIwQ/ms.jpg
p2362
sVlocation
p2363
(dp2364
Vcross_streets
p2365
VPost Aly & Western Ave
p2366
sVcity
p2367
VSeattle
p2368
sVdisplay_address
p2369
(lp2370
V85 Pike St
p2371
aVDowntown
p2372
aVSeattle, WA 98101
p2373
asVgeo_accuracy
p2374
F9.5
sVneighborhoods
p2375
(lp2376
VDowntown
p2377
asVpostal_code
p2378
V98101
p2379
sVcountry_code
p2380
VUS
p2381
sVaddress
p2382
(lp2383
V85 Pike St
p2384
asVcoordinate
p2385
(dp2386
Vlatitude
p2387
F47.608449
sVlongitude
p2388
F-122.340406
ssVstate_code
p2389
VWA
p2390
ssa(dp2391
Vis_claimed
p2392
I01
sVrating
p2393
F5.0
sVmobile_url
p2394
Vhttp://m.yelp.com/biz/nuflours-seattle
p2395
sVrating_img_url
p2396
Vhttp://s3-media1.fl.yelpcdn.com/assets/2/www/img/f1def11e4e79/ico/stars/v1/stars_5.png
p2397
sVreview_count
p2398
I21
sVname
p2399
VNuflours
p2400
sVrating_img_url_small
p2401
Vhttp://s3-media1.fl.yelpcdn.com/assets/2/www/img/c7623205d5cd/ico/stars/v1/stars_small_5.png
p2402
sVurl
p2403
Vhttp://www.yelp.com/biz/nuflours-seattle
p2404
sVis_closed
p2405
I00
sVphone
p2406
V2063954623
p2407
sVsnippet_text
p2408
VPleasantly surprised by this wonderful find on the Hill. The store is kind of small but open, bright, clean and smells just like you hope a bakery would --...
p2409
sVimage_url
p2410
Vhttp://s3-media4.fl.yelpcdn.com/bphoto/V4zb34-6Sh94f1jcVTNDvA/ms.jpg
p2411
sVcategories
p2412
(lp2413
(lp2414
VBakeries
p2415
aVbakeries
p2416
aa(lp2417
VGluten-Free
p2418
aVgluten_free
p2419
aasVdisplay_phone
p2420
V+1-206-395-4623
p2421
sVrating_img_url_large
p2422
Vhttp://s3-media3.fl.yelpcdn.com/assets/2/www/img/22affc4e6c38/ico/stars/v1/stars_large_5.png
p2423
sVid
p2424
Vnuflours-seattle
p2425
sVsnippet_image_url
p2426
Vhttp://s3-media1.fl.yelpcdn.com/photo/y41DxJPjL7PLg_bGmLrAmw/ms.jpg
p2427
sVlocation
p2428
(dp2429
Vcross_streets
p2430
VRepublican St & Mercer St
p2431
sVcity
p2432
VSeattle
p2433
sVdisplay_address
p2434
(lp2435
V518 15th Ave E
p2436
aVCapitol Hill
p2437
aVSeattle, WA 98112
p2438
asVgeo_accuracy
p2439
F8.0
sVneighborhoods
p2440
(lp2441
VCapitol Hill
p2442
asVpostal_code
p2443
V98112
p2444
sVcountry_code
p2445
VUS
p2446
sVaddress
p2447
(lp2448
V518 15th Ave E
p2449
asVcoordinate
p2450
(dp2451
Vlatitude
p2452
F47.623848
sVlongitude
p2453
F-122.312271
ssVstate_code
p2454
VWA
p2455
ssa(dp2456
Vis_claimed
p2457
I00
sVrating
p2458
F4.5
sVmobile_url
p2459
Vhttp://m.yelp.com/biz/thomas-street-market-seattle
p2460
sVrating_img_url
p2461
Vhttp://s3-media2.fl.yelpcdn.com/assets/2/www/img/99493c12711e/ico/stars/v1/stars_4_half.png
p2462
sVreview_count
p2463
I35
sVname
p2464
VThomas Street Market
p2465
sVrating_img_url_small
p2466
Vhttp://s3-media2.fl.yelpcdn.com/assets/2/www/img/a5221e66bc70/ico/stars/v1/stars_small_4_half.png
p2467
sVurl
p2468
Vhttp://www.yelp.com/biz/thomas-street-market-seattle
p2469
sVis_closed
p2470
I00
sVphone
p2471
V2062680734
p2472
sVsnippet_text
p2473
VThis store opened shortly after I moved to the hill--and they became a life staple for me quickly. Pretty early on, they changed owners--but the current...
p2474
sVimage_url
p2475
Vhttp://s3-media2.fl.yelpcdn.com/bphoto/2ve3H78rr9BOSP1Pe-AaQw/ms.jpg
p2476
sVcategories
p2477
(lp2478
(lp2479
VBeer, Wine & Spirits
p2480
aVbeer_and_wine
p2481
aa(lp2482
VGrocery
p2483
aVgrocery
p2484
aasVdisplay_phone
p2485
V+1-206-268-0734
p2486
sVrating_img_url_large
p2487
Vhttp://s3-media4.fl.yelpcdn.com/assets/2/www/img/9f83790ff7f6/ico/stars/v1/stars_large_4_half.png
p2488
sVid
p2489
Vthomas-street-market-seattle
p2490
sVsnippet_image_url
p2491
Vhttp://s3-media1.fl.yelpcdn.com/photo/D9cwfmnsap_IVgH7458gyg/ms.jpg
p2492
sVlocation
p2493
(dp2494
Vcross_streets
p2495
VJohn St & Thomas St
p2496
sVcity
p2497
VSeattle
p2498
sVdisplay_address
p2499
(lp2500
V233 Summit Ave E
p2501
aVCapitol Hill
p2502
aVSeattle, WA 98102
p2503
asVgeo_accuracy
p2504
F8.0
sVneighborhoods
p2505
(lp2506
VCapitol Hill
p2507
asVpostal_code
p2508
V98102
p2509
sVcountry_code
p2510
VUS
p2511
sVaddress
p2512
(lp2513
V233 Summit Ave E
p2514
asVcoordinate
p2515
(dp2516
Vlatitude
p2517
F47.6206512
sVlongitude
p2518
F-122.3255692
ssVstate_code
p2519
VWA
p2520
ssa(dp2521
Vis_claimed
p2522
I01
sVrating
p2523
F4.5
sVmobile_url
p2524
Vhttp://m.yelp.com/biz/uwajimaya-seattle
p2525
sVrating_img_url
p2526
Vhttp://s3-media2.fl.yelpcdn.com/assets/2/www/img/99493c12711e/ico/stars/v1/stars_4_half.png
p2527
sVreview_count
p2528
I726
sVname
p2529
VUwajimaya
p2530
sVrating_img_url_small
p2531
Vhttp://s3-media2.fl.yelpcdn.com/assets/2/www/img/a5221e66bc70/ico/stars/v1/stars_small_4_half.png
p2532
sVurl
p2533
Vhttp://www.yelp.com/biz/uwajimaya-seattle
p2534
sVis_closed
p2535
I00
sVphone
p2536
V2066246248
p2537
sVsnippet_text
p2538
VI adore Uwajimaya and want one in my neighborhood ASAP. \u000a\u000aI had visited the Renton location a few times but had my first visit to the Seattle location...
p2539
sVimage_url
p2540
Vhttp://s3-media4.fl.yelpcdn.com/bphoto/DnO1jjqI4BOMx3XuehFB_A/ms.jpg
p2541
sVcategories
p2542
(lp2543
(lp2544
VGrocery
p2545
aVgrocery
p2546
aa(lp2547
VEthnic Food
p2548
aVethnicmarkets
p2549
aasVdisplay_phone
p2550
V+1-206-624-6248
p2551
sVrating_img_url_large
p2552
Vhttp://s3-media4.fl.yelpcdn.com/assets/2/www/img/9f83790ff7f6/ico/stars/v1/stars_large_4_half.png
p2553
sVid
p2554
Vuwajimaya-seattle
p2555
sVsnippet_image_url
p2556
Vhttp://s3-media4.fl.yelpcdn.com/photo/1AwuU4JqruR1MOhIJNmgyQ/ms.jpg
p2557
sVlocation
p2558
(dp2559
Vcross_streets
p2560
VJames St & Weller St
p2561
sVcity
p2562
VSeattle
p2563
sVdisplay_address
p2564
(lp2565
V600 5th Ave S
p2566
aVInternational District
p2567
aVSeattle, WA 98104
p2568
asVgeo_accuracy
p2569
F8.0
sVneighborhoods
p2570
(lp2571
VInternational District
p2572
asVpostal_code
p2573
V98104
p2574
sVcountry_code
p2575
VUS
p2576
sVaddress
p2577
(lp2578
V600 5th Ave S
p2579
asVcoordinate
p2580
(dp2581
Vlatitude
p2582
F47.5973778
sVlongitude
p2583
F-122.3275452
ssVstate_code
p2584
VWA
p2585
ssasba.