(lp0
(ivenues
VenueType
p1
(dp2
S'name'
p3
S'Restaurants'
p4
sS'yelp_results'
p5
(lp6
(dp7
Vis_claimed
p8
I01
sVrating
p9
F4.5
sVmobile_url
p10
Vhttp://m.yelp.com/biz/art-of-the-table-seattle
p11
sVrating_img_url
p12
Vhttp://s3-media2.fl.yelpcdn.com/assets/2/www/img/99493c12711e/ico/stars/v1/stars_4_half.png
p13
sVreview_count
p14
I381
sVname
p15
VArt of The Table
p16
sVrating_img_url_small
p17
Vhttp://s3-media2.fl.yelpcdn.com/assets/2/www/img/a5221e66bc70/ico/stars/v1/stars_small_4_half.png
p18
sVurl
p19
Vhttp://www.yelp.com/biz/art-of-the-table-seattle
p20
sVis_closed
p21
I00
sVphone
p22
V2062820942
p23
sVsnippet_text
p24
VLet me first say that we've been to places that costs more and wasn't that great at all!  This review is way over due! I'm always bad at doing this when I...
p25
sVimage_url
p26
Vhttp://s3-media1.fl.yelpcdn.com/bphoto/clxiXai-R6kNNaiIf0CShg/ms.jpg
p27
sVcategories
p28
(lp29
(lp30
VAmerican (New)
p31
aVnewamerican
p32
aasVdisplay_phone
p33
V+1-206-282-0942
p34
sVrating_img_url_large
p35
Vhttp://s3-media4.fl.yelpcdn.com/assets/2/www/img/9f83790ff7f6/ico/stars/v1/stars_large_4_half.png
p36
sVid
p37
Vart-of-the-table-seattle
p38
sVsnippet_image_url
p39
Vhttp://s3-media1.fl.yelpcdn.com/photo/PNN2VwEPrjVkdW9k0pV9Rg/ms.jpg
p40
sVlocation
p41
(dp42
Vcross_streets
p43
VN Woodland Park Ave
p44
sVcity
p45
VSeattle
p46
sVdisplay_address
p47
(lp48
V1054 N 39th St
p49
aVFremont
p50
aVSeattle, WA 98103
p51
asVgeo_accuracy
p52
F9.5
sVneighborhoods
p53
(lp54
VFremont
p55
asVpostal_code
p56
V98103
p57
sVcountry_code
p58
VUS
p59
sVaddress
p60
(lp61
V1054 N 39th St
p62
asVcoordinate
p63
(dp64
Vlatitude
p65
F47.654129
sVlongitude
p66
F-122.344183
ssVstate_code
p67
VWA
p68
ssa(dp69
Vis_claimed
p70
I01
sVrating
p71
F4.5
sVmobile_url
p72
Vhttp://m.yelp.com/biz/royal-grinders-seattle-2
p73
sVrating_img_url
p74
Vhttp://s3-media2.fl.yelpcdn.com/assets/2/www/img/99493c12711e/ico/stars/v1/stars_4_half.png
p75
sVreview_count
p76
I358
sVname
p77
VRoyal Grinders
p78
sVrating_img_url_small
p79
Vhttp://s3-media2.fl.yelpcdn.com/assets/2/www/img/a5221e66bc70/ico/stars/v1/stars_small_4_half.png
p80
sVurl
p81
Vhttp://www.yelp.com/biz/royal-grinders-seattle-2
p82
sVis_closed
p83
I00
sVphone
p84
V2065457560
p85
sVsnippet_text
p86
VI was fortunate enough to stumble into this place before a concert and I plan to return any chance I have.  What appears a divey whole in the wall delivers...
p87
sVimage_url
p88
Vhttp://s3-media2.fl.yelpcdn.com/bphoto/lehT6lLP5-vZQxyXNusgpQ/ms.jpg
p89
sVcategories
p90
(lp91
(lp92
VSandwiches
p93
aVsandwiches
p94
aa(lp95
VIce Cream & Frozen Yogurt
p96
aVicecream
p97
aa(lp98
VGelato
p99
aVgelato
p100
aasVdisplay_phone
p101
V+1-206-545-7560
p102
sVrating_img_url_large
p103
Vhttp://s3-media4.fl.yelpcdn.com/assets/2/www/img/9f83790ff7f6/ico/stars/v1/stars_large_4_half.png
p104
sVid
p105
Vroyal-grinders-seattle-2
p106
sVsnippet_image_url
p107
Vhttp://s3-media3.fl.yelpcdn.com/photo/aQ_ZtLoiy8tADSMCg7k1Aw/ms.jpg
p108
sVlocation
p109
(dp110
Vcross_streets
p111
V35th St & N Evanston Ave
p112
sVcity
p113
VSeattle
p114
sVdisplay_address
p115
(lp116
V3526 Fremont Pl N
p117
aVFremont
p118
aVSeattle, WA 98103
p119
asVgeo_accuracy
p120
F8.0
sVneighborhoods
p121
(lp122
VFremont
p123
asVpostal_code
p124
V98103
p125
sVcountry_code
p126
VUS
p127
sVaddress
p128
(lp129
V3526 Fremont Pl N
p130
asVcoordinate
p131
(dp132
Vlatitude
p133
F47.6512985
sVlongitude
p134
F-122.3507767
ssVstate_code
p135
VWA
p136
ssa(dp137
Vis_claimed
p138
I01
sVrating
p139
F4.5
sVmobile_url
p140
Vhttp://m.yelp.com/biz/rockcreek-seafood-and-spirits-seattle
p141
sVrating_img_url
p142
Vhttp://s3-media2.fl.yelpcdn.com/assets/2/www/img/99493c12711e/ico/stars/v1/stars_4_half.png
p143
sVreview_count
p144
I241
sVname
p145
VRockCreek Seafood & Spirits
p146
sVrating_img_url_small
p147
Vhttp://s3-media2.fl.yelpcdn.com/assets/2/www/img/a5221e66bc70/ico/stars/v1/stars_small_4_half.png
p148
sVurl
p149
Vhttp://www.yelp.com/biz/rockcreek-seafood-and-spirits-seattle
p150
sVis_closed
p151
I00
sVid
p152
Vrockcreek-seafood-and-spirits-seattle
p153
sVphone
p154
V2065577532
p155
sVsnippet_text
p156
VI had the pleasure of scooping up the last available reservation at RockCreek on a busy weekend night recently and I was extremely impressed. RockCreek...
p157
sVimage_url
p158
Vhttp://s3-media2.fl.yelpcdn.com/bphoto/fxflrysgLsOebHaYrhVGeQ/ms.jpg
p159
sVcategories
p160
(lp161
(lp162
VSeafood
p163
aVseafood
p164
aasVdisplay_phone
p165
V+1-206-557-7532
p166
sVrating_img_url_large
p167
Vhttp://s3-media4.fl.yelpcdn.com/assets/2/www/img/9f83790ff7f6/ico/stars/v1/stars_large_4_half.png
p168
sVmenu_provider
p169
Vsingle_platform
p170
sVmenu_date_updated
p171
I1422017666
sVsnippet_image_url
p172
Vhttp://s3-media4.fl.yelpcdn.com/photo/jQQp1mOUmzl1dy-1viVOGw/ms.jpg
p173
sVlocation
p174
(dp175
Vcross_streets
p176
V44th St & 43rd St
p177
sVcity
p178
VSeattle
p179
sVdisplay_address
p180
(lp181
V4300 Fremont Ave N
p182
aVFremont
p183
aVSeattle, WA 98103
p184
asVgeo_accuracy
p185
F9.5
sVneighborhoods
p186
(lp187
VFremont
p188
asVpostal_code
p189
V98103
p190
sVcountry_code
p191
VUS
p192
sVaddress
p193
(lp194
V4300 Fremont Ave N
p195
asVcoordinate
p196
(dp197
Vlatitude
p198
F47.659636
sVlongitude
p199
F-122.349719
ssVstate_code
p200
VWA
p201
ssa(dp202
Vis_claimed
p203
I00
sVrating
p204
F4.5
sVmobile_url
p205
Vhttp://m.yelp.com/biz/russells-seattle
p206
sVrating_img_url
p207
Vhttp://s3-media2.fl.yelpcdn.com/assets/2/www/img/99493c12711e/ico/stars/v1/stars_4_half.png
p208
sVreview_count
p209
I35
sVname
p210
VRussell's
p211
sVrating_img_url_small
p212
Vhttp://s3-media2.fl.yelpcdn.com/assets/2/www/img/a5221e66bc70/ico/stars/v1/stars_small_4_half.png
p213
sVurl
p214
Vhttp://www.yelp.com/biz/russells-seattle
p215
sVis_closed
p216
I00
sVphone
p217
V2065471653
p218
sVsnippet_text
p219
VCame to watch the Superbowl. \u000a\u000aBest bar in Wallingford.  The owner is great. the patrons are great, the food is great, the cocktails, they are great...
p220
sVimage_url
p221
Vhttp://s3-media2.fl.yelpcdn.com/bphoto/Rqc7pLSQse9lpXlNwIXiUw/ms.jpg
p222
sVcategories
p223
(lp224
(lp225
VPubs
p226
aVpubs
p227
aa(lp228
VTapas/Small Plates
p229
aVtapasmallplates
p230
aasVdisplay_phone
p231
V+1-206-547-1653
p232
sVrating_img_url_large
p233
Vhttp://s3-media4.fl.yelpcdn.com/assets/2/www/img/9f83790ff7f6/ico/stars/v1/stars_large_4_half.png
p234
sVid
p235
Vrussells-seattle
p236
sVsnippet_image_url
p237
Vhttp://s3-media2.fl.yelpcdn.com/photo/ygqGwD62lRm_d-uaQSZIuQ/ms.jpg
p238
sVlocation
p239
(dp240
Vcross_streets
p241
V42nd St & 41st St
p242
sVcity
p243
VSeattle
p244
sVdisplay_address
p245
(lp246
V4111 Stone Way N
p247
aVFremont
p248
aVSeattle, WA 98103
p249
asVgeo_accuracy
p250
F8.0
sVneighborhoods
p251
(lp252
VFremont
p253
asVpostal_code
p254
V98103
p255
sVcountry_code
p256
VUS
p257
sVaddress
p258
(lp259
V4111 Stone Way N
p260
asVcoordinate
p261
(dp262
Vlatitude
p263
F47.6569976806641
sVlongitude
p264
F-122.342765808105
ssVstate_code
p265
VWA
p266
ssa(dp267
Vis_claimed
p268
I00
sVrating
p269
F4.5
sVmobile_url
p270
Vhttp://m.yelp.com/biz/curbside-seattle
p271
sVrating_img_url
p272
Vhttp://s3-media2.fl.yelpcdn.com/assets/2/www/img/99493c12711e/ico/stars/v1/stars_4_half.png
p273
sVreview_count
p274
I25
sVname
p275
VCurbside
p276
sVrating_img_url_small
p277
Vhttp://s3-media2.fl.yelpcdn.com/assets/2/www/img/a5221e66bc70/ico/stars/v1/stars_small_4_half.png
p278
sVurl
p279
Vhttp://www.yelp.com/biz/curbside-seattle
p280
sVis_closed
p281
I00
sVphone
p282
V2069152581
p283
sVsnippet_text
p284
VI have been here multiple times because it's close to SPU. I always get the pork bahn mi. I should probably get something else just to try this place on a...
p285
sVimage_url
p286
Vhttp://s3-media2.fl.yelpcdn.com/bphoto/YYSZPvO0AHvDqYcW6dMLBQ/ms.jpg
p287
sVcategories
p288
(lp289
(lp290
VFood Trucks
p291
aVfoodtrucks
p292
aa(lp293
VVietnamese
p294
aVvietnamese
p295
aa(lp296
VSandwiches
p297
aVsandwiches
p298
aasVdisplay_phone
p299
V+1-206-915-2581
p300
sVrating_img_url_large
p301
Vhttp://s3-media4.fl.yelpcdn.com/assets/2/www/img/9f83790ff7f6/ico/stars/v1/stars_large_4_half.png
p302
sVid
p303
Vcurbside-seattle
p304
sVsnippet_image_url
p305
Vhttp://s3-media3.fl.yelpcdn.com/photo/iqsxDTttmPOzYU0DTrjnxw/ms.jpg
p306
sVlocation
p307
(dp308
Vcity
p309
VSeattle
p310
sVdisplay_address
p311
(lp312
V3 W Nickerson St
p313
aVQueen Anne
p314
aVSeattle, WA 98119
p315
asVgeo_accuracy
p316
F9.5
sVneighborhoods
p317
(lp318
VQueen Anne
p319
asVpostal_code
p320
V98119
p321
sVcountry_code
p322
VUS
p323
sVaddress
p324
(lp325
V3 W Nickerson St
p326
asVcoordinate
p327
(dp328
Vlatitude
p329
F47.6497067
sVlongitude
p330
F-122.3577959
ssVstate_code
p331
VWA
p332
ssasba(ivenues
VenueType
p333
(dp334
g3
S'Cafes'
p335
sg5
(lp336
(dp337
Vis_claimed
p338
I01
sVrating
p339
F5.0
sVmobile_url
p340
Vhttp://m.yelp.com/biz/cederberg-tea-house-seattle-2
p341
sVrating_img_url
p342
Vhttp://s3-media1.fl.yelpcdn.com/assets/2/www/img/f1def11e4e79/ico/stars/v1/stars_5.png
p343
sVreview_count
p344
I77
sVname
p345
VCederberg Tea House
p346
sVrating_img_url_small
p347
Vhttp://s3-media1.fl.yelpcdn.com/assets/2/www/img/c7623205d5cd/ico/stars/v1/stars_small_5.png
p348
sVurl
p349
Vhttp://www.yelp.com/biz/cederberg-tea-house-seattle-2
p350
sVis_closed
p351
I00
sVid
p352
Vcederberg-tea-house-seattle-2
p353
sVphone
p354
V2062851352
p355
sVsnippet_text
p356
VGreat service and yummy pastries and the Roobios expresso machine is amazing!!! Does not get any better! \u000a\u000aI always get the sausage roll and the roobios...
p357
sVimage_url
p358
Vhttp://s3-media4.fl.yelpcdn.com/bphoto/hFUYyyRzpx7G3oTbAsbCkw/ms.jpg
p359
sVcategories
p360
(lp361
(lp362
VCoffee & Tea
p363
aVcoffee
p364
aa(lp365
VBakeries
p366
aVbakeries
p367
aa(lp368
VSouth African
p369
aVsouthafrican
p370
aasVdisplay_phone
p371
V+1-206-285-1352
p372
sVrating_img_url_large
p373
Vhttp://s3-media3.fl.yelpcdn.com/assets/2/www/img/22affc4e6c38/ico/stars/v1/stars_large_5.png
p374
sVmenu_provider
p375
Vsingle_platform
p376
sVmenu_date_updated
p377
I1399106263
sVsnippet_image_url
p378
Vhttp://s3-media3.fl.yelpcdn.com/photo/_sSNvod-83KTuoPcvEi7Nw/ms.jpg
p379
sVlocation
p380
(dp381
Vcross_streets
p382
VGaler St & Lee St
p383
sVcity
p384
VSeattle
p385
sVdisplay_address
p386
(lp387
V1417 Queen Anne Ave N
p388
aVSte 101 B
p389
aVQueen Anne
p390
aVSeattle, WA 98109
p391
asVgeo_accuracy
p392
F9.5
sVneighborhoods
p393
(lp394
VQueen Anne
p395
asVpostal_code
p396
V98109
p397
sVcountry_code
p398
VUS
p399
sVaddress
p400
(lp401
V1417 Queen Anne Ave N
p402
aVSte 101 B
p403
asVcoordinate
p404
(dp405
Vlatitude
p406
F47.6321057378511
sVlongitude
p407
F-122.356939564896
ssVstate_code
p408
VWA
p409
ssa(dp410
Vis_claimed
p411
I01
sVrating
p412
F4.5
sVmobile_url
p413
Vhttp://m.yelp.com/biz/milstead-and-co-seattle-3
p414
sVrating_img_url
p415
Vhttp://s3-media2.fl.yelpcdn.com/assets/2/www/img/99493c12711e/ico/stars/v1/stars_4_half.png
p416
sVreview_count
p417
I167
sVname
p418
VMilstead & Co.
p419
sVrating_img_url_small
p420
Vhttp://s3-media2.fl.yelpcdn.com/assets/2/www/img/a5221e66bc70/ico/stars/v1/stars_small_4_half.png
p421
sVurl
p422
Vhttp://www.yelp.com/biz/milstead-and-co-seattle-3
p423
sVis_closed
p424
I00
sVphone
p425
V2066594814
p426
sVsnippet_text
p427
VWhat an incredible coffee shop. It's not the closest one to my house but I'll be driving the extra 10 minutes to get there any time I want to get out and...
p428
sVimage_url
p429
Vhttp://s3-media4.fl.yelpcdn.com/bphoto/AxCr1Vpta_aIExQ7saRRDw/ms.jpg
p430
sVcategories
p431
(lp432
(lp433
VCoffee & Tea
p434
aVcoffee
p435
aasVdisplay_phone
p436
V+1-206-659-4814
p437
sVrating_img_url_large
p438
Vhttp://s3-media4.fl.yelpcdn.com/assets/2/www/img/9f83790ff7f6/ico/stars/v1/stars_large_4_half.png
p439
sVid
p440
Vmilstead-and-co-seattle-3
p441
sVsnippet_image_url
p442
Vhttp://s3-media1.fl.yelpcdn.com/photo/6LSvtAr0LX5memf1R6LaGw/ms.jpg
p443
sVlocation
p444
(dp445
Vcross_streets
p446
VN Fremont Ave & N Aurora Ave
p447
sVcity
p448
VSeattle
p449
sVdisplay_address
p450
(lp451
V770 N 34th St
p452
aVFremont
p453
aVSeattle, WA 98103
p454
asVgeo_accuracy
p455
F9.5
sVneighborhoods
p456
(lp457
VFremont
p458
asVpostal_code
p459
V98103
p460
sVcountry_code
p461
VUS
p462
sVaddress
p463
(lp464
V770 N 34th St
p465
asVcoordinate
p466
(dp467
Vlatitude
p468
F47.649380354164
sVlongitude
p469
F-122.34774765944
ssVstate_code
p470
VWA
p471
ssa(dp472
Vis_claimed
p473
I01
sVrating
p474
F4.5
sVmobile_url
p475
Vhttp://m.yelp.com/biz/java-jahn-seattle-2
p476
sVrating_img_url
p477
Vhttp://s3-media2.fl.yelpcdn.com/assets/2/www/img/99493c12711e/ico/stars/v1/stars_4_half.png
p478
sVreview_count
p479
I34
sVname
p480
VJava Jahn
p481
sVrating_img_url_small
p482
Vhttp://s3-media2.fl.yelpcdn.com/assets/2/www/img/a5221e66bc70/ico/stars/v1/stars_small_4_half.png
p483
sVurl
p484
Vhttp://www.yelp.com/biz/java-jahn-seattle-2
p485
sVis_closed
p486
I00
sVphone
p487
V2067899441
p488
sVsnippet_text
p489
VWent in for the first time and they were some of the nicest people ever! Friendly and very professional baristas that I would recommend to anyone. Had their...
p490
sVimage_url
p491
Vhttp://s3-media2.fl.yelpcdn.com/bphoto/pJ7MmyAD-hO7qj4xw_5Pdw/ms.jpg
p492
sVcategories
p493
(lp494
(lp495
VCoffee & Tea
p496
aVcoffee
p497
aa(lp498
VDesserts
p499
aVdesserts
p500
aa(lp501
VBagels
p502
aVbagels
p503
aasVdisplay_phone
p504
V+1-206-789-9441
p505
sVrating_img_url_large
p506
Vhttp://s3-media4.fl.yelpcdn.com/assets/2/www/img/9f83790ff7f6/ico/stars/v1/stars_large_4_half.png
p507
sVid
p508
Vjava-jahn-seattle-2
p509
sVsnippet_image_url
p510
Vhttp://s3-media2.fl.yelpcdn.com/photo/MtAHCbQ9xsRW2YNFaqseHw/ms.jpg
p511
sVlocation
p512
(dp513
Vcross_streets
p514
VN 15th Ave & N 14th Ave
p515
sVcity
p516
VSeattle
p517
sVdisplay_address
p518
(lp519
V1428 NW Leary Way
p520
aVBallard
p521
aVSeattle, WA 98107
p522
asVgeo_accuracy
p523
F8.0
sVneighborhoods
p524
(lp525
VBallard
p526
asVpostal_code
p527
V98107
p528
sVcountry_code
p529
VUS
p530
sVaddress
p531
(lp532
V1428 NW Leary Way
p533
asVcoordinate
p534
(dp535
Vlatitude
p536
F47.6639099
sVlongitude
p537
F-122.3749084
ssVstate_code
p538
VWA
p539
ssa(dp540
Vis_claimed
p541
I01
sVrating
p542
F4.5
sVmobile_url
p543
Vhttp://m.yelp.com/biz/slate-coffee-bar-seattle
p544
sVrating_img_url
p545
Vhttp://s3-media2.fl.yelpcdn.com/assets/2/www/img/99493c12711e/ico/stars/v1/stars_4_half.png
p546
sVreview_count
p547
I103
sVname
p548
VSlate Coffee Bar
p549
sVrating_img_url_small
p550
Vhttp://s3-media2.fl.yelpcdn.com/assets/2/www/img/a5221e66bc70/ico/stars/v1/stars_small_4_half.png
p551
sVurl
p552
Vhttp://www.yelp.com/biz/slate-coffee-bar-seattle
p553
sVis_closed
p554
I00
sVphone
p555
V2062407174
p556
sVsnippet_text
p557
VI want to live in Ballard just so that I can call Slate Coffee Bar my "local" coffee hang out. I come here every time I'm in town and suddenly I feel like I...
p558
sVimage_url
p559
Vhttp://s3-media1.fl.yelpcdn.com/bphoto/SaCRf-iay1brUntGNLcBRQ/ms.jpg
p560
sVcategories
p561
(lp562
(lp563
VCoffee & Tea
p564
aVcoffee
p565
aasVdisplay_phone
p566
V+1-206-240-7174
p567
sVrating_img_url_large
p568
Vhttp://s3-media4.fl.yelpcdn.com/assets/2/www/img/9f83790ff7f6/ico/stars/v1/stars_large_4_half.png
p569
sVid
p570
Vslate-coffee-bar-seattle
p571
sVsnippet_image_url
p572
Vhttp://s3-media4.fl.yelpcdn.com/photo/-A-OulihBwoK3HFeeONsbw/ms.jpg
p573
sVlocation
p574
(dp575
Vcross_streets
p576
V54th St & Market St
p577
sVcity
p578
VSeattle
p579
sVdisplay_address
p580
(lp581
V5413 6th Ave NW
p582
aVBallard
p583
aVSeattle, WA 98107
p584
asVgeo_accuracy
p585
F8.0
sVneighborhoods
p586
(lp587
VBallard
p588
asVpostal_code
p589
V98107
p590
sVcountry_code
p591
VUS
p592
sVaddress
p593
(lp594
V5413 6th Ave NW
p595
asVcoordinate
p596
(dp597
Vlatitude
p598
F47.6683502
sVlongitude
p599
F-122.3635406
ssVstate_code
p600
VWA
p601
ssa(dp602
Vis_claimed
p603
I00
sVrating
p604
F4.5
sVmobile_url
p605
Vhttp://m.yelp.com/biz/etg-coffee-and-bakery-seattle
p606
sVrating_img_url
p607
Vhttp://s3-media2.fl.yelpcdn.com/assets/2/www/img/99493c12711e/ico/stars/v1/stars_4_half.png
p608
sVreview_count
p609
I72
sVname
p610
VETG Coffee and Bakery
p611
sVrating_img_url_small
p612
Vhttp://s3-media2.fl.yelpcdn.com/assets/2/www/img/a5221e66bc70/ico/stars/v1/stars_small_4_half.png
p613
sVurl
p614
Vhttp://www.yelp.com/biz/etg-coffee-and-bakery-seattle
p615
sVis_closed
p616
I00
sVphone
p617
V2066333685
p618
sVsnippet_text
p619
VETG comes close to being the perfect coffee shop. Why, you may ask?\u000a-A manageable drink menu; all items being made or roasted on site\u000a-Fresh baked goods. As...
p620
sVimage_url
p621
Vhttp://s3-media1.fl.yelpcdn.com/bphoto/pf9gTgUgSizPU_N_gPFF4Q/ms.jpg
p622
sVcategories
p623
(lp624
(lp625
VCoffee & Tea
p626
aVcoffee
p627
aa(lp628
VBakeries
p629
aVbakeries
p630
aasVdisplay_phone
p631
V+1-206-633-3685
p632
sVrating_img_url_large
p633
Vhttp://s3-media4.fl.yelpcdn.com/assets/2/www/img/9f83790ff7f6/ico/stars/v1/stars_large_4_half.png
p634
sVid
p635
Vetg-coffee-and-bakery-seattle
p636
sVsnippet_image_url
p637
Vhttp://s3-media4.fl.yelpcdn.com/photo/Wiw8QoxLVy0CH0O7ocTLYQ/ms.jpg
p638
sVlocation
p639
(dp640
Vcross_streets
p641
V35th St & N Evanston Ave
p642
sVcity
p643
VSeattle
p644
sVdisplay_address
p645
(lp646
V3512 Fremont Pl N
p647
aVFremont
p648
aVSeattle, WA 98103
p649
asVgeo_accuracy
p650
F8.0
sVneighborhoods
p651
(lp652
VFremont
p653
asVpostal_code
p654
V98103
p655
sVcountry_code
p656
VUS
p657
sVaddress
p658
(lp659
V3512 Fremont Pl N
p660
asVcoordinate
p661
(dp662
Vlatitude
p663
F47.6507004350424
sVlongitude
p664
F-122.3502510041
ssVstate_code
p665
VWA
p666
ssasba(ivenues
VenueType
p667
(dp668
g3
S'Bars'
p669
sg5
(lp670
(dp671
Vis_claimed
p672
I01
sVrating
p673
F4.5
sVmobile_url
p674
Vhttp://m.yelp.com/biz/schilling-cider-house-seattle
p675
sVrating_img_url
p676
Vhttp://s3-media2.fl.yelpcdn.com/assets/2/www/img/99493c12711e/ico/stars/v1/stars_4_half.png
p677
sVreview_count
p678
I39
sVname
p679
VSchilling Cider House
p680
sVrating_img_url_small
p681
Vhttp://s3-media2.fl.yelpcdn.com/assets/2/www/img/a5221e66bc70/ico/stars/v1/stars_small_4_half.png
p682
sVurl
p683
Vhttp://www.yelp.com/biz/schilling-cider-house-seattle
p684
sVis_closed
p685
I00
sVphone
p686
V2064207088
p687
sVsnippet_text
p688
V32 ciders on tap! \u000a\u000aThis trap room also provides bottled cider from their fridge!! \u000a\u000aAlso, they have water on tap for patrons to serve themselves. Adorable....
p689
sVimage_url
p690
Vhttp://s3-media4.fl.yelpcdn.com/bphoto/A6KyO7VXSLsyGM3JkRmQBg/ms.jpg
p691
sVcategories
p692
(lp693
(lp694
VBars
p695
aVbars
p696
aa(lp697
VBeer, Wine & Spirits
p698
aVbeer_and_wine
p699
aa(lp700
VBreweries
p701
aVbreweries
p702
aasVdisplay_phone
p703
V+1-206-420-7088
p704
sVrating_img_url_large
p705
Vhttp://s3-media4.fl.yelpcdn.com/assets/2/www/img/9f83790ff7f6/ico/stars/v1/stars_large_4_half.png
p706
sVid
p707
Vschilling-cider-house-seattle
p708
sVsnippet_image_url
p709
Vhttp://s3-media2.fl.yelpcdn.com/photo/UzK-DzfjWVzebxHriqeAQg/ms.jpg
p710
sVlocation
p711
(dp712
Vcross_streets
p713
VN Aurora Ave & N Fremont Ave
p714
sVcity
p715
VSeattle
p716
sVdisplay_address
p717
(lp718
V708 N 34th St
p719
aVFremont
p720
aVSeattle, WA 98103
p721
asVgeo_accuracy
p722
F8.0
sVneighborhoods
p723
(lp724
VFremont
p725
asVpostal_code
p726
V98103
p727
sVcountry_code
p728
VUS
p729
sVaddress
p730
(lp731
V708 N 34th St
p732
asVcoordinate
p733
(dp734
Vlatitude
p735
F47.6496429
sVlongitude
p736
F-122.3491287
ssVstate_code
p737
VWA
p738
ssa(dp739
Vis_claimed
p740
I01
sVrating
p741
F4.5
sVmobile_url
p742
Vhttp://m.yelp.com/biz/barnacle-seattle
p743
sVrating_img_url
p744
Vhttp://s3-media2.fl.yelpcdn.com/assets/2/www/img/99493c12711e/ico/stars/v1/stars_4_half.png
p745
sVreview_count
p746
I36
sVname
p747
VBarnacle
p748
sVrating_img_url_small
p749
Vhttp://s3-media2.fl.yelpcdn.com/assets/2/www/img/a5221e66bc70/ico/stars/v1/stars_small_4_half.png
p750
sVurl
p751
Vhttp://www.yelp.com/biz/barnacle-seattle
p752
sVis_closed
p753
I00
sVid
p754
Vbarnacle-seattle
p755
sVphone
p756
V2067063379
p757
sVsnippet_text
p758
VThis hidden gem was actually a better experience than the restaurant we were waiting to get seated at.\u000aWe contemplated coming back after, but as usual, we...
p759
sVimage_url
p760
Vhttp://s3-media4.fl.yelpcdn.com/bphoto/vRXNTqOWiLuUXZii6L8FrA/ms.jpg
p761
sVcategories
p762
(lp763
(lp764
VWine Bars
p765
aVwine_bars
p766
aa(lp767
VSeafood
p768
aVseafood
p769
aa(lp770
VTapas/Small Plates
p771
aVtapasmallplates
p772
aasVdisplay_phone
p773
V+1-206-706-3379
p774
sVrating_img_url_large
p775
Vhttp://s3-media4.fl.yelpcdn.com/assets/2/www/img/9f83790ff7f6/ico/stars/v1/stars_large_4_half.png
p776
sVmenu_provider
p777
Vsingle_platform
p778
sVmenu_date_updated
p779
I1398575021
sVsnippet_image_url
p780
Vhttp://s3-media2.fl.yelpcdn.com/photo/sC-2CjMEoWEuJqN8wCXNQg/ms.jpg
p781
sVlocation
p782
(dp783
Vcross_streets
p784
V48th St & N 17th Ave
p785
sVcity
p786
VSeattle
p787
sVdisplay_address
p788
(lp789
V4743 Ballard Ave NW
p790
aVBallard
p791
aVSeattle, WA 98107
p792
asVgeo_accuracy
p793
F9.5
sVneighborhoods
p794
(lp795
VBallard
p796
asVpostal_code
p797
V98107
p798
sVcountry_code
p799
VUS
p800
sVaddress
p801
(lp802
V4743 Ballard Ave NW
p803
asVcoordinate
p804
(dp805
Vlatitude
p806
F47.663511
sVlongitude
p807
F-122.38022
ssVstate_code
p808
VWA
p809
ssa(dp810
Vis_claimed
p811
I01
sVrating
p812
F4.5
sVmobile_url
p813
Vhttp://m.yelp.com/biz/art-of-the-table-seattle
p814
sVrating_img_url
p815
Vhttp://s3-media2.fl.yelpcdn.com/assets/2/www/img/99493c12711e/ico/stars/v1/stars_4_half.png
p816
sVreview_count
p817
I381
sVname
p818
VArt of The Table
p819
sVrating_img_url_small
p820
Vhttp://s3-media2.fl.yelpcdn.com/assets/2/www/img/a5221e66bc70/ico/stars/v1/stars_small_4_half.png
p821
sVurl
p822
Vhttp://www.yelp.com/biz/art-of-the-table-seattle
p823
sVis_closed
p824
I00
sVphone
p825
V2062820942
p826
sVsnippet_text
p827
VLet me first say that we've been to places that costs more and wasn't that great at all!  This review is way over due! I'm always bad at doing this when I...
p828
sVimage_url
p829
Vhttp://s3-media1.fl.yelpcdn.com/bphoto/clxiXai-R6kNNaiIf0CShg/ms.jpg
p830
sVcategories
p831
(lp832
(lp833
VAmerican (New)
p834
aVnewamerican
p835
aasVdisplay_phone
p836
V+1-206-282-0942
p837
sVrating_img_url_large
p838
Vhttp://s3-media4.fl.yelpcdn.com/assets/2/www/img/9f83790ff7f6/ico/stars/v1/stars_large_4_half.png
p839
sVid
p840
Vart-of-the-table-seattle
p841
sVsnippet_image_url
p842
Vhttp://s3-media1.fl.yelpcdn.com/photo/PNN2VwEPrjVkdW9k0pV9Rg/ms.jpg
p843
sVlocation
p844
(dp845
Vcross_streets
p846
VN Woodland Park Ave
p847
sVcity
p848
VSeattle
p849
sVdisplay_address
p850
(lp851
V1054 N 39th St
p852
aVFremont
p853
aVSeattle, WA 98103
p854
asVgeo_accuracy
p855
F9.5
sVneighborhoods
p856
(lp857
VFremont
p858
asVpostal_code
p859
V98103
p860
sVcountry_code
p861
VUS
p862
sVaddress
p863
(lp864
V1054 N 39th St
p865
asVcoordinate
p866
(dp867
Vlatitude
p868
F47.654129
sVlongitude
p869
F-122.344183
ssVstate_code
p870
VWA
p871
ssa(dp872
Vis_claimed
p873
I01
sVrating
p874
F4.5
sVmobile_url
p875
Vhttp://m.yelp.com/biz/fremont-brewing-seattle
p876
sVrating_img_url
p877
Vhttp://s3-media2.fl.yelpcdn.com/assets/2/www/img/99493c12711e/ico/stars/v1/stars_4_half.png
p878
sVreview_count
p879
I251
sVname
p880
VFremont Brewing
p881
sVrating_img_url_small
p882
Vhttp://s3-media2.fl.yelpcdn.com/assets/2/www/img/a5221e66bc70/ico/stars/v1/stars_small_4_half.png
p883
sVurl
p884
Vhttp://www.yelp.com/biz/fremont-brewing-seattle
p885
sVis_closed
p886
I00
sVphone
p887
V2064202407
p888
sVsnippet_text
p889
VWow, what a great spot.\u000a\u000aToday we were at Fremont on our Seattle beer tour. We were down from Calgary for a few days to have some great IPAs et al.\u000a\u000aWe had...
p890
sVimage_url
p891
Vhttp://s3-media1.fl.yelpcdn.com/bphoto/mbewJOsDdlmtS17U-uRJAQ/ms.jpg
p892
sVcategories
p893
(lp894
(lp895
VBreweries
p896
aVbreweries
p897
aa(lp898
VBars
p899
aVbars
p900
aasVdisplay_phone
p901
V+1-206-420-2407
p902
sVrating_img_url_large
p903
Vhttp://s3-media4.fl.yelpcdn.com/assets/2/www/img/9f83790ff7f6/ico/stars/v1/stars_large_4_half.png
p904
sVid
p905
Vfremont-brewing-seattle
p906
sVsnippet_image_url
p907
Vhttp://s3-media1.fl.yelpcdn.com/photo/sLPbkqb_P7EDb6xYgQYNUQ/ms.jpg
p908
sVlocation
p909
(dp910
Vcross_streets
p911
VN Albion Pl & N Woodland Park Ave
p912
sVcity
p913
VSeattle
p914
sVdisplay_address
p915
(lp916
V1050 N 34th St
p917
aVFremont
p918
aVSeattle, WA 98103
p919
asVgeo_accuracy
p920
F8.0
sVneighborhoods
p921
(lp922
VFremont
p923
asVpostal_code
p924
V98103
p925
sVcountry_code
p926
VUS
p927
sVaddress
p928
(lp929
V1050 N 34th St
p930
asVcoordinate
p931
(dp932
Vlatitude
p933
F47.648987
sVlongitude
p934
F-122.344421
ssVstate_code
p935
VWA
p936
ssa(dp937
Vis_claimed
p938
I01
sVrating
p939
F4.5
sVmobile_url
p940
Vhttp://m.yelp.com/biz/rockcreek-seafood-and-spirits-seattle
p941
sVrating_img_url
p942
Vhttp://s3-media2.fl.yelpcdn.com/assets/2/www/img/99493c12711e/ico/stars/v1/stars_4_half.png
p943
sVreview_count
p944
I241
sVname
p945
VRockCreek Seafood & Spirits
p946
sVrating_img_url_small
p947
Vhttp://s3-media2.fl.yelpcdn.com/assets/2/www/img/a5221e66bc70/ico/stars/v1/stars_small_4_half.png
p948
sVurl
p949
Vhttp://www.yelp.com/biz/rockcreek-seafood-and-spirits-seattle
p950
sVis_closed
p951
I00
sVid
p952
Vrockcreek-seafood-and-spirits-seattle
p953
sVphone
p954
V2065577532
p955
sVsnippet_text
p956
VI had the pleasure of scooping up the last available reservation at RockCreek on a busy weekend night recently and I was extremely impressed. RockCreek...
p957
sVimage_url
p958
Vhttp://s3-media2.fl.yelpcdn.com/bphoto/fxflrysgLsOebHaYrhVGeQ/ms.jpg
p959
sVcategories
p960
(lp961
(lp962
VSeafood
p963
aVseafood
p964
aasVdisplay_phone
p965
V+1-206-557-7532
p966
sVrating_img_url_large
p967
Vhttp://s3-media4.fl.yelpcdn.com/assets/2/www/img/9f83790ff7f6/ico/stars/v1/stars_large_4_half.png
p968
sVmenu_provider
p969
Vsingle_platform
p970
sVmenu_date_updated
p971
I1422017666
sVsnippet_image_url
p972
Vhttp://s3-media4.fl.yelpcdn.com/photo/jQQp1mOUmzl1dy-1viVOGw/ms.jpg
p973
sVlocation
p974
(dp975
Vcross_streets
p976
V44th St & 43rd St
p977
sVcity
p978
VSeattle
p979
sVdisplay_address
p980
(lp981
V4300 Fremont Ave N
p982
aVFremont
p983
aVSeattle, WA 98103
p984
asVgeo_accuracy
p985
F9.5
sVneighborhoods
p986
(lp987
VFremont
p988
asVpostal_code
p989
V98103
p990
sVcountry_code
p991
VUS
p992
sVaddress
p993
(lp994
V4300 Fremont Ave N
p995
asVcoordinate
p996
(dp997
Vlatitude
p998
F47.659636
sVlongitude
p999
F-122.349719
ssVstate_code
p1000
VWA
p1001
ssasba(ivenues
VenueType
p1002
(dp1003
g3
S'Nightclubs'
p1004
sg5
(lp1005
(dp1006
Vis_claimed
p1007
I01
sVrating
p1008
F5.0
sVmobile_url
p1009
Vhttp://m.yelp.com/biz/injoy-entertainment-seattle
p1010
sVrating_img_url
p1011
Vhttp://s3-media1.fl.yelpcdn.com/assets/2/www/img/f1def11e4e79/ico/stars/v1/stars_5.png
p1012
sVreview_count
p1013
I26
sVname
p1014
VInjoy Entertainment
p1015
sVrating_img_url_small
p1016
Vhttp://s3-media1.fl.yelpcdn.com/assets/2/www/img/c7623205d5cd/ico/stars/v1/stars_small_5.png
p1017
sVurl
p1018
Vhttp://www.yelp.com/biz/injoy-entertainment-seattle
p1019
sVis_closed
p1020
I00
sVphone
p1021
V2063108369
p1022
sVsnippet_text
p1023
VMy Wife and I recently got married in Seattle, WA and Injoy Entertainment did a spectacular job at our wedding.  Jason manages an outstanding business and...
p1024
sVimage_url
p1025
Vhttp://s3-media1.fl.yelpcdn.com/bphoto/1B-Drkbwcs6X11YttHIJ9g/ms.jpg
p1026
sVcategories
p1027
(lp1028
(lp1029
VDJs
p1030
aVdjs
p1031
aa(lp1032
VWedding Planning
p1033
aVwedding_planning
p1034
aa(lp1035
VParty Equipment Rentals
p1036
aVpartyequipmentrentals
p1037
aasVdisplay_phone
p1038
V+1-206-310-8369
p1039
sVrating_img_url_large
p1040
Vhttp://s3-media3.fl.yelpcdn.com/assets/2/www/img/22affc4e6c38/ico/stars/v1/stars_large_5.png
p1041
sVid
p1042
Vinjoy-entertainment-seattle
p1043
sVsnippet_image_url
p1044
Vhttp://s3-media4.fl.yelpcdn.com/assets/srv0/yelp_styleguide/cc4afe21892e/assets/img/default_avatars/user_medium_square.png
p1045
sVlocation
p1046
(dp1047
Vcross_streets
p1048
V24th St & Mercer Way
p1049
sVcity
p1050
VSeattle
p1051
sVdisplay_address
p1052
(lp1053
V2500 81st Ave SE
p1054
aVSte 312
p1055
aVSeattle, WA 98040
p1056
asVgeo_accuracy
p1057
F8.0
sVpostal_code
p1058
V98040
p1059
sVcountry_code
p1060
VUS
p1061
sVaddress
p1062
(lp1063
V2500 81st Ave SE
p1064
aVSte 312
p1065
asVcoordinate
p1066
(dp1067
Vlatitude
p1068
F47.588303
sVlongitude
p1069
F-122.230003
ssVstate_code
p1070
VWA
p1071
ssa(dp1072
Vis_claimed
p1073
I01
sVrating
p1074
F4.5
sVmobile_url
p1075
Vhttp://m.yelp.com/biz/schilling-cider-house-seattle
p1076
sVrating_img_url
p1077
Vhttp://s3-media2.fl.yelpcdn.com/assets/2/www/img/99493c12711e/ico/stars/v1/stars_4_half.png
p1078
sVreview_count
p1079
I39
sVname
p1080
VSchilling Cider House
p1081
sVrating_img_url_small
p1082
Vhttp://s3-media2.fl.yelpcdn.com/assets/2/www/img/a5221e66bc70/ico/stars/v1/stars_small_4_half.png
p1083
sVurl
p1084
Vhttp://www.yelp.com/biz/schilling-cider-house-seattle
p1085
sVis_closed
p1086
I00
sVphone
p1087
V2064207088
p1088
sVsnippet_text
p1089
V32 ciders on tap! \u000a\u000aThis trap room also provides bottled cider from their fridge!! \u000a\u000aAlso, they have water on tap for patrons to serve themselves. Adorable....
p1090
sVimage_url
p1091
Vhttp://s3-media4.fl.yelpcdn.com/bphoto/A6KyO7VXSLsyGM3JkRmQBg/ms.jpg
p1092
sVcategories
p1093
(lp1094
(lp1095
VBars
p1096
aVbars
p1097
aa(lp1098
VBeer, Wine & Spirits
p1099
aVbeer_and_wine
p1100
aa(lp1101
VBreweries
p1102
aVbreweries
p1103
aasVdisplay_phone
p1104
V+1-206-420-7088
p1105
sVrating_img_url_large
p1106
Vhttp://s3-media4.fl.yelpcdn.com/assets/2/www/img/9f83790ff7f6/ico/stars/v1/stars_large_4_half.png
p1107
sVid
p1108
Vschilling-cider-house-seattle
p1109
sVsnippet_image_url
p1110
Vhttp://s3-media2.fl.yelpcdn.com/photo/UzK-DzfjWVzebxHriqeAQg/ms.jpg
p1111
sVlocation
p1112
(dp1113
Vcross_streets
p1114
VN Aurora Ave & N Fremont Ave
p1115
sVcity
p1116
VSeattle
p1117
sVdisplay_address
p1118
(lp1119
V708 N 34th St
p1120
aVFremont
p1121
aVSeattle, WA 98103
p1122
asVgeo_accuracy
p1123
F8.0
sVneighborhoods
p1124
(lp1125
VFremont
p1126
asVpostal_code
p1127
V98103
p1128
sVcountry_code
p1129
VUS
p1130
sVaddress
p1131
(lp1132
V708 N 34th St
p1133
asVcoordinate
p1134
(dp1135
Vlatitude
p1136
F47.6496429
sVlongitude
p1137
F-122.3491287
ssVstate_code
p1138
VWA
p1139
ssa(dp1140
Vis_claimed
p1141
I01
sVrating
p1142
F4.5
sVmobile_url
p1143
Vhttp://m.yelp.com/biz/art-of-the-table-seattle
p1144
sVrating_img_url
p1145
Vhttp://s3-media2.fl.yelpcdn.com/assets/2/www/img/99493c12711e/ico/stars/v1/stars_4_half.png
p1146
sVreview_count
p1147
I381
sVname
p1148
VArt of The Table
p1149
sVrating_img_url_small
p1150
Vhttp://s3-media2.fl.yelpcdn.com/assets/2/www/img/a5221e66bc70/ico/stars/v1/stars_small_4_half.png
p1151
sVurl
p1152
Vhttp://www.yelp.com/biz/art-of-the-table-seattle
p1153
sVis_closed
p1154
I00
sVphone
p1155
V2062820942
p1156
sVsnippet_text
p1157
VLet me first say that we've been to places that costs more and wasn't that great at all!  This review is way over due! I'm always bad at doing this when I...
p1158
sVimage_url
p1159
Vhttp://s3-media1.fl.yelpcdn.com/bphoto/clxiXai-R6kNNaiIf0CShg/ms.jpg
p1160
sVcategories
p1161
(lp1162
(lp1163
VAmerican (New)
p1164
aVnewamerican
p1165
aasVdisplay_phone
p1166
V+1-206-282-0942
p1167
sVrating_img_url_large
p1168
Vhttp://s3-media4.fl.yelpcdn.com/assets/2/www/img/9f83790ff7f6/ico/stars/v1/stars_large_4_half.png
p1169
sVid
p1170
Vart-of-the-table-seattle
p1171
sVsnippet_image_url
p1172
Vhttp://s3-media1.fl.yelpcdn.com/photo/PNN2VwEPrjVkdW9k0pV9Rg/ms.jpg
p1173
sVlocation
p1174
(dp1175
Vcross_streets
p1176
VN Woodland Park Ave
p1177
sVcity
p1178
VSeattle
p1179
sVdisplay_address
p1180
(lp1181
V1054 N 39th St
p1182
aVFremont
p1183
aVSeattle, WA 98103
p1184
asVgeo_accuracy
p1185
F9.5
sVneighborhoods
p1186
(lp1187
VFremont
p1188
asVpostal_code
p1189
V98103
p1190
sVcountry_code
p1191
VUS
p1192
sVaddress
p1193
(lp1194
V1054 N 39th St
p1195
asVcoordinate
p1196
(dp1197
Vlatitude
p1198
F47.654129
sVlongitude
p1199
F-122.344183
ssVstate_code
p1200
VWA
p1201
ssa(dp1202
Vis_claimed
p1203
I01
sVrating
p1204
F5.0
sVmobile_url
p1205
Vhttp://m.yelp.com/biz/crimson-haze-event-lighting-seattle
p1206
sVrating_img_url
p1207
Vhttp://s3-media1.fl.yelpcdn.com/assets/2/www/img/f1def11e4e79/ico/stars/v1/stars_5.png
p1208
sVreview_count
p1209
I11
sVname
p1210
VCrimson Haze Event Lighting
p1211
sVrating_img_url_small
p1212
Vhttp://s3-media1.fl.yelpcdn.com/assets/2/www/img/c7623205d5cd/ico/stars/v1/stars_small_5.png
p1213
sVurl
p1214
Vhttp://www.yelp.com/biz/crimson-haze-event-lighting-seattle
p1215
sVis_closed
p1216
I00
sVphone
p1217
V4259545451
p1218
sVsnippet_text
p1219
VCrimson Haze did the lighting at my wedding reception in Fred Wildlife Refuge, and it was DOPE! Bright enough for the old folks to get around, dim enough...
p1220
sVimage_url
p1221
Vhttp://s3-media3.fl.yelpcdn.com/bphoto/_O51ODUd22PhLS_-TM7H2A/ms.jpg
p1222
sVcategories
p1223
(lp1224
(lp1225
VParty & Event Planning
p1226
aVeventplanning
p1227
aa(lp1228
VLighting Fixtures & Equipment
p1229
aVlighting
p1230
aa(lp1231
VParty Equipment Rentals
p1232
aVpartyequipmentrentals
p1233
aasVdisplay_phone
p1234
V+1-425-954-5451
p1235
sVrating_img_url_large
p1236
Vhttp://s3-media3.fl.yelpcdn.com/assets/2/www/img/22affc4e6c38/ico/stars/v1/stars_large_5.png
p1237
sVid
p1238
Vcrimson-haze-event-lighting-seattle
p1239
sVsnippet_image_url
p1240
Vhttp://s3-media4.fl.yelpcdn.com/photo/qO_C1oSNOF-4jflJ4J3dHg/ms.jpg
p1241
sVlocation
p1242
(dp1243
Vcross_streets
p1244
V38th St & N Fremont Way
p1245
sVcity
p1246
VSeattle
p1247
sVdisplay_address
p1248
(lp1249
V3614 Linden Ave N
p1250
aVSte 214
p1251
aVFremont
p1252
aVSeattle, WA 98103
p1253
asVgeo_accuracy
p1254
F8.0
sVneighborhoods
p1255
(lp1256
VFremont
p1257
asVpostal_code
p1258
V98103
p1259
sVcountry_code
p1260
VUS
p1261
sVaddress
p1262
(lp1263
V3614 Linden Ave N
p1264
aVSte 214
p1265
asVcoordinate
p1266
(dp1267
Vlatitude
p1268
F47.6514876633883
sVlongitude
p1269
F-122.348565906286
ssVstate_code
p1270
VWA
p1271
ssa(dp1272
Vrating
p1273
F4.5
sVrating_img_url
p1274
Vhttp://s3-media2.fl.yelpcdn.com/assets/2/www/img/99493c12711e/ico/stars/v1/stars_4_half.png
p1275
sVdisplay_phone
p1276
V+1-206-402-3042
p1277
sVgift_certificates
p1278
(lp1279
(dp1280
Vurl
p1281
Vhttp://www.yelp.com/gift-certificates/lucid-seattle
p1282
sVunused_balances
p1283
VCREDIT
p1284
sVid
p1285
V6PkuZ5kIyvr08LHpdyKBSg
p1286
sVimage_url
p1287
Vhttp://s3-media4.fl.yelpcdn.com/bphoto/u6KI66Ictdc9Xoii1lmF7w/m.jpg
p1288
sVoptions
p1289
(lp1290
(dp1291
Vprice
p1292
I1000
sVformatted_price
p1293
V$10
p1294
sa(dp1295
Vprice
p1296
I2500
sVformatted_price
p1297
V$25
p1298
sa(dp1299
Vprice
p1300
I5000
sVformatted_price
p1301
V$50
p1302
sa(dp1303
Vprice
p1304
I7500
sVformatted_price
p1305
V$75
p1306
sa(dp1307
Vprice
p1308
I10000
sVformatted_price
p1309
V$100
p1310
sa(dp1311
Vprice
p1312
I15000
sVformatted_price
p1313
V$150
p1314
sasVcurrency_code
p1315
VUSD
p1316
sasVid
p1317
Vlucid-seattle
p1318
sVis_closed
p1319
I00
sVmobile_url
p1320
Vhttp://m.yelp.com/biz/lucid-seattle
p1321
sVreview_count
p1322
I84
sVcategories
p1323
(lp1324
(lp1325
VJazz & Blues
p1326
aVjazzandblues
p1327
aa(lp1328
VLounges
p1329
aVlounges
p1330
aasVlocation
p1331
(dp1332
Vcross_streets
p1333
V52nd St & 55th St
p1334
sVcity
p1335
VSeattle
p1336
sVdisplay_address
p1337
(lp1338
V5241 University Way NE
p1339
aVUniversity District
p1340
aVSeattle, WA 98105
p1341
asVgeo_accuracy
p1342
F9.5
sVneighborhoods
p1343
(lp1344
VUniversity District
p1345
asVpostal_code
p1346
V98105
p1347
sVcountry_code
p1348
VUS
p1349
sVaddress
p1350
(lp1351
V5241 University Way NE
p1352
asVcoordinate
p1353
(dp1354
Vlatitude
p1355
F47.667618
sVlongitude
p1356
F-122.3133294
ssVstate_code
p1357
VWA
p1358
ssVis_claimed
p1359
I01
sVrating_img_url_small
p1360
Vhttp://s3-media2.fl.yelpcdn.com/assets/2/www/img/a5221e66bc70/ico/stars/v1/stars_small_4_half.png
p1361
sVphone
p1362
V2064023042
p1363
sVsnippet_text
p1364
VLucid is an unexpectedly adult venue for being on the Ave. They host complicated drinks, live music and art. It takes a higher consciousness to truly...
p1365
sVrating_img_url_large
p1366
Vhttp://s3-media4.fl.yelpcdn.com/assets/2/www/img/9f83790ff7f6/ico/stars/v1/stars_large_4_half.png
p1367
sVsnippet_image_url
p1368
Vhttp://s3-media3.fl.yelpcdn.com/photo/WK8u5L2X_Rp2GwLymUWEkQ/ms.jpg
p1369
sVname
p1370
VLUCID
p1371
sVurl
p1372
Vhttp://www.yelp.com/biz/lucid-seattle
p1373
sVdeals
p1374
(lp1375
(dp1376
Vis_popular
p1377
I01
sVwhat_you_get
p1378
VYou get a voucher redeemable for $30 at LUCID.\u000aPrint out your voucher, or redeem on your phone with the <a href="http://www.yelp.com/yelpmobile">Yelp app</a>.
p1379
sVtime_start
p1380
I1415811162
sVtitle
p1381
V$20 for $30
p1382
sVurl
p1383
Vhttp://www.yelp.com/deals/lucid-seattle
p1384
sVadditional_restrictions
p1385
VPromotion lasts for 1 year from date of purchase. After that period, your voucher is redeemable for the amount you paid. Not valid with other vouchers, certificates, or offers. Must be 21 or older. Only 1 voucher(s) can be purchased and redeemed per person. Must use in a single visit. Up to 4 can be purchased as gifts for others. Must make appointment at least 24 hours in advance. Subject to the <a target="_blank" href="http://www.yelp.com/tos/general_b2c_us_20120911">General Terms</a>.
p1386
sVid
p1387
VJFay-Yrv_lPod2s9GuHj0A
p1388
sVimage_url
p1389
Vhttp://s3-media3.fl.yelpcdn.com/dphoto/Dj4-WhHakLW61hn-xCQbQw/m.jpg
p1390
sVoptions
p1391
(lp1392
(dp1393
Voriginal_price
p1394
I3000
sVtitle
p1395
V$20 for $30
p1396
sVprice
p1397
I2000
sVpurchase_url
p1398
Vhttps://www.yelp.com/checkout/deal/xHcWfZHYLT2S1gcC5CS1sQ
p1399
sVremaining_count
p1400
I37
sVformatted_original_price
p1401
V$30
p1402
sVformatted_price
p1403
V$20
p1404
sVis_quantity_limited
p1405
I01
sasVcurrency_code
p1406
VUSD
p1407
sasVimage_url
p1408
Vhttp://s3-media2.fl.yelpcdn.com/bphoto/Xb22YdIJOKMWjc3_q9KFVA/ms.jpg
p1409
sVmenu_provider
p1410
Vsingle_platform
p1411
sVmenu_date_updated
p1412
I1417841369
sasba(ivenues
VenueType
p1413
(dp1414
g3
S'Gyms'
p1415
sg5
(lp1416
(dp1417
Vis_claimed
p1418
I01
sVrating
p1419
F5.0
sVmobile_url
p1420
Vhttp://m.yelp.com/biz/ianfitness-seattle
p1421
sVrating_img_url
p1422
Vhttp://s3-media1.fl.yelpcdn.com/assets/2/www/img/f1def11e4e79/ico/stars/v1/stars_5.png
p1423
sVreview_count
p1424
I44
sVname
p1425
VIanFitness
p1426
sVrating_img_url_small
p1427
Vhttp://s3-media1.fl.yelpcdn.com/assets/2/www/img/c7623205d5cd/ico/stars/v1/stars_small_5.png
p1428
sVurl
p1429
Vhttp://www.yelp.com/biz/ianfitness-seattle
p1430
sVis_closed
p1431
I00
sVid
p1432
Vianfitness-seattle
p1433
sVdeals
p1434
(lp1435
(dp1436
Vis_popular
p1437
I01
sVwhat_you_get
p1438
VYou get a voucher redeemable for $45 at IanFitness.\u000aPrint out your voucher, or redeem on your phone with the <a href="http://www.yelp.com/yelpmobile">Yelp app</a>.
p1439
sVtime_start
p1440
I1371586714
sVtitle
p1441
V$20 for $45
p1442
sVurl
p1443
Vhttp://www.yelp.com/deals/ianfitness-seattle
p1444
sVadditional_restrictions
p1445
VPromotion lasts for 1 year from date of purchase. After that period, your voucher is redeemable for the amount you paid, less any value you may have received. Not valid with other vouchers, certificates, or offers. All equipment provided. Only 1 voucher(s) can be purchased and redeemed per person. Up to 3 can be purchased as gifts for others. Must make appointment at least 24 hours in advance. Tax included. Subject to the <a target="_blank" href="http://www.yelp.com/tos/general_b2c_us_20120911">General Terms</a>.
p1446
sVid
p1447
VXcByZZeJgAi0iIYFWakv9g
p1448
sVimportant_restrictions
p1449
VNew customers only.
p1450
sVimage_url
p1451
Vhttp://s3-media2.fl.yelpcdn.com/dphoto/jU4yGPB1rU10KjQFtdojxQ/m.jpg
p1452
sVoptions
p1453
(lp1454
(dp1455
Voriginal_price
p1456
I4500
sVtitle
p1457
V$20 for $45
p1458
sVprice
p1459
I2000
sVpurchase_url
p1460
Vhttps://www.yelp.com/checkout/deal/o17c7gGTBc_-7DAqHFSf4g
p1461
sVformatted_original_price
p1462
V$45
p1463
sVformatted_price
p1464
V$20
p1465
sVis_quantity_limited
p1466
I00
sasVcurrency_code
p1467
VUSD
p1468
sasVphone
p1469
V2063490242
p1470
sVsnippet_text
p1471
VI was a competitive athlete for 15 years but fell out of a consistent workout routine after college.  I was introduced to Ian's 45-minute bootcamp classes...
p1472
sVimage_url
p1473
Vhttp://s3-media3.fl.yelpcdn.com/bphoto/sPqioRDQNHk3vFzgr9yxcw/ms.jpg
p1474
sVcategories
p1475
(lp1476
(lp1477
VTrainers
p1478
aVhealthtrainers
p1479
aa(lp1480
VBoot Camps
p1481
aVbootcamps
p1482
aa(lp1483
VGyms
p1484
aVgyms
p1485
aasVdisplay_phone
p1486
V+1-206-349-0242
p1487
sVrating_img_url_large
p1488
Vhttp://s3-media3.fl.yelpcdn.com/assets/2/www/img/22affc4e6c38/ico/stars/v1/stars_large_5.png
p1489
sVmenu_provider
p1490
Vsingle_platform
p1491
sVmenu_date_updated
p1492
I1404103892
sVsnippet_image_url
p1493
Vhttp://s3-media3.fl.yelpcdn.com/photo/mGq8kz1e-NG8SpANHfKpNw/ms.jpg
p1494
sVlocation
p1495
(dp1496
Vcross_streets
p1497
VDravus St & N Warren Ave
p1498
sVcity
p1499
VSeattle
p1500
sVdisplay_address
p1501
(lp1502
V101 Nickerson St
p1503
aVQueen Anne
p1504
aVSeattle, WA 98109
p1505
asVgeo_accuracy
p1506
F8.0
sVneighborhoods
p1507
(lp1508
VQueen Anne
p1509
asVpostal_code
p1510
V98109
p1511
sVcountry_code
p1512
VUS
p1513
sVaddress
p1514
(lp1515
V101 Nickerson St
p1516
asVcoordinate
p1517
(dp1518
Vlatitude
p1519
F47.648368
sVlongitude
p1520
F-122.355262
ssVstate_code
p1521
VWA
p1522
ssa(dp1523
Vis_claimed
p1524
I01
sVrating
p1525
F5.0
sVmobile_url
p1526
Vhttp://m.yelp.com/biz/shogun-fitness-seattle
p1527
sVrating_img_url
p1528
Vhttp://s3-media1.fl.yelpcdn.com/assets/2/www/img/f1def11e4e79/ico/stars/v1/stars_5.png
p1529
sVreview_count
p1530
I24
sVname
p1531
VShogun Fitness
p1532
sVrating_img_url_small
p1533
Vhttp://s3-media1.fl.yelpcdn.com/assets/2/www/img/c7623205d5cd/ico/stars/v1/stars_small_5.png
p1534
sVurl
p1535
Vhttp://www.yelp.com/biz/shogun-fitness-seattle
p1536
sVis_closed
p1537
I00
sVphone
p1538
V2068345056
p1539
sVsnippet_text
p1540
VTHIS GUY IS GREAT! \u000a\u000aJef will get you so EXCITED  about what your doing because he honestly cares about you and making your life AMAZING!\u000a\u000aFirst of all I...
p1541
sVimage_url
p1542
Vhttp://s3-media3.fl.yelpcdn.com/bphoto/qvQKrVBRhQbS3Qk45TPQCA/ms.jpg
p1543
sVcategories
p1544
(lp1545
(lp1546
VTrainers
p1547
aVhealthtrainers
p1548
aasVdisplay_phone
p1549
V+1-206-834-5056
p1550
sVrating_img_url_large
p1551
Vhttp://s3-media3.fl.yelpcdn.com/assets/2/www/img/22affc4e6c38/ico/stars/v1/stars_large_5.png
p1552
sVid
p1553
Vshogun-fitness-seattle
p1554
sVsnippet_image_url
p1555
Vhttp://s3-media2.fl.yelpcdn.com/photo/1hmN3QczBwZ_elT92pwY1A/ms.jpg
p1556
sVlocation
p1557
(dp1558
Vcross_streets
p1559
VCrockett St
p1560
sVcity
p1561
VSeattle
p1562
sVdisplay_address
p1563
(lp1564
V2040 Westlake Ave N
p1565
aVWestlake
p1566
aVSeattle, WA 98109
p1567
asVgeo_accuracy
p1568
F8.0
sVneighborhoods
p1569
(lp1570
VWestlake
p1571
asVpostal_code
p1572
V98109
p1573
sVcountry_code
p1574
VUS
p1575
sVaddress
p1576
(lp1577
V2040 Westlake Ave N
p1578
asVcoordinate
p1579
(dp1580
Vlatitude
p1581
F47.637383
sVlongitude
p1582
F-122.339661
ssVstate_code
p1583
VWA
p1584
ssa(dp1585
Vis_claimed
p1586
I01
sVrating
p1587
F5.0
sVmobile_url
p1588
Vhttp://m.yelp.com/biz/sync-fitness-seattle
p1589
sVrating_img_url
p1590
Vhttp://s3-media1.fl.yelpcdn.com/assets/2/www/img/f1def11e4e79/ico/stars/v1/stars_5.png
p1591
sVreview_count
p1592
I21
sVname
p1593
VSync Fitness
p1594
sVrating_img_url_small
p1595
Vhttp://s3-media1.fl.yelpcdn.com/assets/2/www/img/c7623205d5cd/ico/stars/v1/stars_small_5.png
p1596
sVurl
p1597
Vhttp://www.yelp.com/biz/sync-fitness-seattle
p1598
sVis_closed
p1599
I00
sVphone
p1600
V2063547480
p1601
sVsnippet_text
p1602
VI was afraid to go to the gym or work out with a trainer before I visited Sync with a friend. I was blown away by the camaraderie, the encouragement, and...
p1603
sVimage_url
p1604
Vhttp://s3-media2.fl.yelpcdn.com/bphoto/pzxmvvr6bGDVx40zl_MyEw/ms.jpg
p1605
sVcategories
p1606
(lp1607
(lp1608
VTrainers
p1609
aVhealthtrainers
p1610
aa(lp1611
VBoot Camps
p1612
aVbootcamps
p1613
aasVdisplay_phone
p1614
V+1-206-354-7480
p1615
sVrating_img_url_large
p1616
Vhttp://s3-media3.fl.yelpcdn.com/assets/2/www/img/22affc4e6c38/ico/stars/v1/stars_large_5.png
p1617
sVid
p1618
Vsync-fitness-seattle
p1619
sVsnippet_image_url
p1620
Vhttp://s3-media2.fl.yelpcdn.com/photo/W3FniUAx4zkzoOp_kz-OvQ/ms.jpg
p1621
sVlocation
p1622
(dp1623
Vcross_streets
p1624
VW 15th Ave
p1625
sVcity
p1626
VSeattle
p1627
sVdisplay_address
p1628
(lp1629
V1550 W Armory Way
p1630
aVInterbay
p1631
aVSeattle, WA 98119
p1632
asVgeo_accuracy
p1633
F9.5
sVneighborhoods
p1634
(lp1635
VInterbay
p1636
asVpostal_code
p1637
V98119
p1638
sVcountry_code
p1639
VUS
p1640
sVaddress
p1641
(lp1642
V1550 W Armory Way
p1643
asVcoordinate
p1644
(dp1645
Vlatitude
p1646
F47.638404
sVlongitude
p1647
F-122.377472
ssVstate_code
p1648
VWA
p1649
ssa(dp1650
Vis_claimed
p1651
I01
sVrating
p1652
F5.0
sVmobile_url
p1653
Vhttp://m.yelp.com/biz/pure-barre-seattle
p1654
sVrating_img_url
p1655
Vhttp://s3-media1.fl.yelpcdn.com/assets/2/www/img/f1def11e4e79/ico/stars/v1/stars_5.png
p1656
sVreview_count
p1657
I35
sVname
p1658
VPure Barre
p1659
sVrating_img_url_small
p1660
Vhttp://s3-media1.fl.yelpcdn.com/assets/2/www/img/c7623205d5cd/ico/stars/v1/stars_small_5.png
p1661
sVurl
p1662
Vhttp://www.yelp.com/biz/pure-barre-seattle
p1663
sVis_closed
p1664
I00
sVphone
p1665
V2069357873
p1666
sVsnippet_text
p1667
VThis is one of the best workout regiments I have ever encountered. \u000a\u000aWhile targeting and toning problem areas with precise isometric movements and pulses as...
p1668
sVimage_url
p1669
Vhttp://s3-media4.fl.yelpcdn.com/bphoto/npip-SpABfErLFkBuFXefg/ms.jpg
p1670
sVcategories
p1671
(lp1672
(lp1673
VGyms
p1674
aVgyms
p1675
aa(lp1676
VBarre Classes
p1677
aVbarreclasses
p1678
aasVdisplay_phone
p1679
V+1-206-935-7873
p1680
sVrating_img_url_large
p1681
Vhttp://s3-media3.fl.yelpcdn.com/assets/2/www/img/22affc4e6c38/ico/stars/v1/stars_large_5.png
p1682
sVid
p1683
Vpure-barre-seattle
p1684
sVsnippet_image_url
p1685
Vhttp://s3-media3.fl.yelpcdn.com/photo/EJSyGhgf_0M8cJXaGx_uOw/ms.jpg
p1686
sVlocation
p1687
(dp1688
Vcross_streets
p1689
V49th St & Blakeley St
p1690
sVcity
p1691
VSeattle
p1692
sVdisplay_address
p1693
(lp1694
V5001 25th Ave NE
p1695
aVSte 102
p1696
aVUniversity District
p1697
aVSeattle, WA 98105
p1698
asVgeo_accuracy
p1699
F8.0
sVneighborhoods
p1700
(lp1701
VUniversity District
p1702
asVpostal_code
p1703
V98105
p1704
sVcountry_code
p1705
VUS
p1706
sVaddress
p1707
(lp1708
V5001 25th Ave NE
p1709
aVSte 102
p1710
asVcoordinate
p1711
(dp1712
Vlatitude
p1713
F47.665131
sVlongitude
p1714
F-122.30117
ssVstate_code
p1715
VWA
p1716
ssa(dp1717
Vis_claimed
p1718
I00
sVrating
p1719
F5.0
sVmobile_url
p1720
Vhttp://m.yelp.com/biz/howe-street-stairs-seattle
p1721
sVrating_img_url
p1722
Vhttp://s3-media1.fl.yelpcdn.com/assets/2/www/img/f1def11e4e79/ico/stars/v1/stars_5.png
p1723
sVreview_count
p1724
I14
sVname
p1725
VHowe Street Stairs
p1726
sVrating_img_url_small
p1727
Vhttp://s3-media1.fl.yelpcdn.com/assets/2/www/img/c7623205d5cd/ico/stars/v1/stars_small_5.png
p1728
sVurl
p1729
Vhttp://www.yelp.com/biz/howe-street-stairs-seattle
p1730
sVis_closed
p1731
I00
sVsnippet_text
p1732
VI mean, the five stars I'm giving this are really five stars of WANTING TO DIE. Not, like, five stars of super fun awesome times or anything.\u000a\u000aThese stairs...
p1733
sVimage_url
p1734
Vhttp://s3-media3.fl.yelpcdn.com/bphoto/bkYOP1vRwmL5DGrtNz6Vww/ms.jpg
p1735
sVcategories
p1736
(lp1737
(lp1738
VGyms
p1739
aVgyms
p1740
aasVrating_img_url_large
p1741
Vhttp://s3-media3.fl.yelpcdn.com/assets/2/www/img/22affc4e6c38/ico/stars/v1/stars_large_5.png
p1742
sVid
p1743
Vhowe-street-stairs-seattle
p1744
sVsnippet_image_url
p1745
Vhttp://s3-media1.fl.yelpcdn.com/photo/SJQMjAVkr_6QAQl6iZEn6A/ms.jpg
p1746
sVlocation
p1747
(dp1748
Vcross_streets
p1749
VE Lakeview Blvd & E Broadway
p1750
sVcity
p1751
VSeattle
p1752
sVdisplay_address
p1753
(lp1754
V810 E Howe St
p1755
aVCapitol Hill
p1756
aVSeattle, WA 98102
p1757
asVgeo_accuracy
p1758
F8.0
sVneighborhoods
p1759
(lp1760
VCapitol Hill
p1761
asVpostal_code
p1762
V98102
p1763
sVcountry_code
p1764
VUS
p1765
sVaddress
p1766
(lp1767
V810 E Howe St
p1768
asVcoordinate
p1769
(dp1770
Vlatitude
p1771
F47.6360664
sVlongitude
p1772
F-122.3221817
ssVstate_code
p1773
VWA
p1774
ssasba(ivenues
VenueType
p1775
(dp1776
g3
S'Parks'
p1777
sg5
(lp1778
(dp1779
Vis_claimed
p1780
I00
sVrating
p1781
F5.0
sVmobile_url
p1782
Vhttp://m.yelp.com/biz/ella-bailey-park-seattle
p1783
sVrating_img_url
p1784
Vhttp://s3-media1.fl.yelpcdn.com/assets/2/www/img/f1def11e4e79/ico/stars/v1/stars_5.png
p1785
sVreview_count
p1786
I20
sVname
p1787
VElla Bailey Park
p1788
sVrating_img_url_small
p1789
Vhttp://s3-media1.fl.yelpcdn.com/assets/2/www/img/c7623205d5cd/ico/stars/v1/stars_small_5.png
p1790
sVurl
p1791
Vhttp://www.yelp.com/biz/ella-bailey-park-seattle
p1792
sVis_closed
p1793
I00
sVphone
p1794
V2066849286
p1795
sVsnippet_text
p1796
VThis park not only offers a fantastic view of downtown Seattle and Mount Rainer but also has a great playground for the kids, a small walking track (also...
p1797
sVimage_url
p1798
Vhttp://s3-media2.fl.yelpcdn.com/bphoto/pefxZS-3Hmx1cYGCd6jCkw/ms.jpg
p1799
sVcategories
p1800
(lp1801
(lp1802
VParks
p1803
aVparks
p1804
aa(lp1805
VPlaygrounds
p1806
aVplaygrounds
p1807
aasVdisplay_phone
p1808
V+1-206-684-9286
p1809
sVrating_img_url_large
p1810
Vhttp://s3-media3.fl.yelpcdn.com/assets/2/www/img/22affc4e6c38/ico/stars/v1/stars_large_5.png
p1811
sVid
p1812
Vella-bailey-park-seattle
p1813
sVsnippet_image_url
p1814
Vhttp://s3-media2.fl.yelpcdn.com/photo/W3FniUAx4zkzoOp_kz-OvQ/ms.jpg
p1815
sVlocation
p1816
(dp1817
Vcity
p1818
VSeattle
p1819
sVdisplay_address
p1820
(lp1821
V2601 W Smith St
p1822
aVMagnolia
p1823
aVSeattle, WA 98134
p1824
asVgeo_accuracy
p1825
F8.0
sVneighborhoods
p1826
(lp1827
VMagnolia
p1828
asVpostal_code
p1829
V98134
p1830
sVcountry_code
p1831
VUS
p1832
sVaddress
p1833
(lp1834
V2601 W Smith St
p1835
asVcoordinate
p1836
(dp1837
Vlatitude
p1838
F47.6411249488592
sVlongitude
p1839
F-122.390803992748
ssVstate_code
p1840
VWA
p1841
ssa(dp1842
Vis_claimed
p1843
I00
sVrating
p1844
F4.5
sVmobile_url
p1845
Vhttp://m.yelp.com/biz/kerry-park-seattle
p1846
sVrating_img_url
p1847
Vhttp://s3-media2.fl.yelpcdn.com/assets/2/www/img/99493c12711e/ico/stars/v1/stars_4_half.png
p1848
sVreview_count
p1849
I487
sVname
p1850
VKerry Park
p1851
sVrating_img_url_small
p1852
Vhttp://s3-media2.fl.yelpcdn.com/assets/2/www/img/a5221e66bc70/ico/stars/v1/stars_small_4_half.png
p1853
sVurl
p1854
Vhttp://www.yelp.com/biz/kerry-park-seattle
p1855
sVis_closed
p1856
I00
sVphone
p1857
V2066844075
p1858
sVsnippet_text
p1859
VBeautiful, romantical, inspiring. Classic Seattle. What else is there to say?  \u000a\u000aBreathtaking views of Seattle and the Sound day or night. It's a great spot...
p1860
sVimage_url
p1861
Vhttp://s3-media2.fl.yelpcdn.com/bphoto/sj2Y2Ix32n-f4yMwFaB3tw/ms.jpg
p1862
sVcategories
p1863
(lp1864
(lp1865
VParks
p1866
aVparks
p1867
aa(lp1868
VPlaygrounds
p1869
aVplaygrounds
p1870
aasVdisplay_phone
p1871
V+1-206-684-4075
p1872
sVrating_img_url_large
p1873
Vhttp://s3-media4.fl.yelpcdn.com/assets/2/www/img/9f83790ff7f6/ico/stars/v1/stars_large_4_half.png
p1874
sVid
p1875
Vkerry-park-seattle
p1876
sVsnippet_image_url
p1877
Vhttp://s3-media4.fl.yelpcdn.com/photo/MSb0nJxJkZKSjBQSlBbdyw/ms.jpg
p1878
sVlocation
p1879
(dp1880
Vcity
p1881
VSeattle
p1882
sVdisplay_address
p1883
(lp1884
V211 W Highland Dr
p1885
aVLower Queen Anne
p1886
aVSeattle, WA 98127
p1887
asVgeo_accuracy
p1888
F8.0
sVneighborhoods
p1889
(lp1890
VLower Queen Anne
p1891
asVpostal_code
p1892
V98127
p1893
sVcountry_code
p1894
VUS
p1895
sVaddress
p1896
(lp1897
V211 W Highland Dr
p1898
asVcoordinate
p1899
(dp1900
Vlatitude
p1901
F47.6295290887356
sVlongitude
p1902
F-122.359552904963
ssVstate_code
p1903
VWA
p1904
ssa(dp1905
Vis_claimed
p1906
I00
sVrating
p1907
F5.0
sVmobile_url
p1908
Vhttp://m.yelp.com/biz/meridian-playground-seattle
p1909
sVrating_img_url
p1910
Vhttp://s3-media1.fl.yelpcdn.com/assets/2/www/img/f1def11e4e79/ico/stars/v1/stars_5.png
p1911
sVreview_count
p1912
I24
sVname
p1913
VMeridian Playground
p1914
sVrating_img_url_small
p1915
Vhttp://s3-media1.fl.yelpcdn.com/assets/2/www/img/c7623205d5cd/ico/stars/v1/stars_small_5.png
p1916
sVurl
p1917
Vhttp://www.yelp.com/biz/meridian-playground-seattle
p1918
sVis_closed
p1919
I00
sVphone
p1920
V2066844075
p1921
sVsnippet_text
p1922
VThis is such a nice park, and I'm so lucky to have lived close to it. Even luckier that I was in its vicinity during the 65th Annual Wallingford Family...
p1923
sVimage_url
p1924
Vhttp://s3-media1.fl.yelpcdn.com/bphoto/nlCCNmEmH2eUPu9PZQpSpw/ms.jpg
p1925
sVcategories
p1926
(lp1927
(lp1928
VParks
p1929
aVparks
p1930
aa(lp1931
VPlaygrounds
p1932
aVplaygrounds
p1933
aasVdisplay_phone
p1934
V+1-206-684-4075
p1935
sVrating_img_url_large
p1936
Vhttp://s3-media3.fl.yelpcdn.com/assets/2/www/img/22affc4e6c38/ico/stars/v1/stars_large_5.png
p1937
sVid
p1938
Vmeridian-playground-seattle
p1939
sVsnippet_image_url
p1940
Vhttp://s3-media1.fl.yelpcdn.com/photo/7LENS_pacTAzOSS-osn-Ow/ms.jpg
p1941
sVlocation
p1942
(dp1943
Vcross_streets
p1944
V46th St
p1945
sVcity
p1946
VSeattle
p1947
sVdisplay_address
p1948
(lp1949
V4649 Sunnyside Ave N
p1950
aVWallingford
p1951
aVSeattle, WA 98103
p1952
asVgeo_accuracy
p1953
F8.0
sVneighborhoods
p1954
(lp1955
VWallingford
p1956
asVpostal_code
p1957
V98103
p1958
sVcountry_code
p1959
VUS
p1960
sVaddress
p1961
(lp1962
V4649 Sunnyside Ave N
p1963
asVcoordinate
p1964
(dp1965
Vlatitude
p1966
F47.6645627617836
sVlongitude
p1967
F-122.330358400941
ssVstate_code
p1968
VWA
p1969
ssa(dp1970
Vis_claimed
p1971
I00
sVrating
p1972
F4.5
sVmobile_url
p1973
Vhttp://m.yelp.com/biz/woodland-park-seattle
p1974
sVrating_img_url
p1975
Vhttp://s3-media2.fl.yelpcdn.com/assets/2/www/img/99493c12711e/ico/stars/v1/stars_4_half.png
p1976
sVreview_count
p1977
I25
sVname
p1978
VWoodland Park
p1979
sVrating_img_url_small
p1980
Vhttp://s3-media2.fl.yelpcdn.com/assets/2/www/img/a5221e66bc70/ico/stars/v1/stars_small_4_half.png
p1981
sVurl
p1982
Vhttp://www.yelp.com/biz/woodland-park-seattle
p1983
sVis_closed
p1984
I00
sVphone
p1985
V2066844075
p1986
sVsnippet_text
p1987
VWhat an amazing park for dogs and their humans! Wow! Off leash walking thru a forest in the middle of the city - unbelievable!
p1988
sVimage_url
p1989
Vhttp://s3-media2.fl.yelpcdn.com/bphoto/1HG1okhrYNTkywt38HJ-OQ/ms.jpg
p1990
sVcategories
p1991
(lp1992
(lp1993
VParks
p1994
aVparks
p1995
aa(lp1996
VPlaygrounds
p1997
aVplaygrounds
p1998
aasVdisplay_phone
p1999
V+1-206-684-4075
p2000
sVrating_img_url_large
p2001
Vhttp://s3-media4.fl.yelpcdn.com/assets/2/www/img/9f83790ff7f6/ico/stars/v1/stars_large_4_half.png
p2002
sVid
p2003
Vwoodland-park-seattle
p2004
sVsnippet_image_url
p2005
Vhttp://s3-media1.fl.yelpcdn.com/photo/XzQH7Igd1zy8Qg3l4JJGSA/ms.jpg
p2006
sVlocation
p2007
(dp2008
Vcross_streets
p2009
VN Woodland Park Ave & N Whitman Ave
p2010
sVcity
p2011
VSeattle
p2012
sVdisplay_address
p2013
(lp2014
V1000 N 50th St
p2015
aVPhinney Ridge
p2016
aVSeattle, WA 98103
p2017
asVgeo_accuracy
p2018
F8.0
sVneighborhoods
p2019
(lp2020
VPhinney Ridge
p2021
asVpostal_code
p2022
V98103
p2023
sVcountry_code
p2024
VUS
p2025
sVaddress
p2026
(lp2027
V1000 N 50th St
p2028
asVcoordinate
p2029
(dp2030
Vlatitude
p2031
F47.665184
sVlongitude
p2032
F-122.3458099
ssVstate_code
p2033
VWA
p2034
ssa(dp2035
Vis_claimed
p2036
I00
sVrating
p2037
F4.5
sVmobile_url
p2038
Vhttp://m.yelp.com/biz/green-lake-park-seattle
p2039
sVrating_img_url
p2040
Vhttp://s3-media2.fl.yelpcdn.com/assets/2/www/img/99493c12711e/ico/stars/v1/stars_4_half.png
p2041
sVreview_count
p2042
I331
sVname
p2043
VGreen Lake Park
p2044
sVrating_img_url_small
p2045
Vhttp://s3-media2.fl.yelpcdn.com/assets/2/www/img/a5221e66bc70/ico/stars/v1/stars_small_4_half.png
p2046
sVurl
p2047
Vhttp://www.yelp.com/biz/green-lake-park-seattle
p2048
sVis_closed
p2049
I00
sVphone
p2050
V2066844075
p2051
sVsnippet_text
p2052
VThis is the trail I take when I need inspiration, when I need to clear my mind,  when I need to make important decisions in my life, or when I just need to...
p2053
sVimage_url
p2054
Vhttp://s3-media2.fl.yelpcdn.com/bphoto/XVmtFEMTvlo4CpwSeve9dw/ms.jpg
p2055
sVcategories
p2056
(lp2057
(lp2058
VParks
p2059
aVparks
p2060
aa(lp2061
VLakes
p2062
aVlakes
p2063
aasVdisplay_phone
p2064
V+1-206-684-4075
p2065
sVrating_img_url_large
p2066
Vhttp://s3-media4.fl.yelpcdn.com/assets/2/www/img/9f83790ff7f6/ico/stars/v1/stars_large_4_half.png
p2067
sVid
p2068
Vgreen-lake-park-seattle
p2069
sVsnippet_image_url
p2070
Vhttp://s3-media4.fl.yelpcdn.com/photo/S-k8FFL-HZ8WgQPfniCXCw/ms.jpg
p2071
sVlocation
p2072
(dp2073
Vcross_streets
p2074
VN Aurora Ave & N Stone Ave
p2075
sVcity
p2076
VSeattle
p2077
sVdisplay_address
p2078
(lp2079
V7201 E Green Lake Dr N
p2080
aVGreenlake
p2081
aVSeattle, WA 98103
p2082
asVgeo_accuracy
p2083
F9.5
sVneighborhoods
p2084
(lp2085
VGreenlake
p2086
asVpostal_code
p2087
V98103
p2088
sVcountry_code
p2089
VUS
p2090
sVaddress
p2091
(lp2092
V7201 E Green Lake Dr N
p2093
asVcoordinate
p2094
(dp2095
Vlatitude
p2096
F47.6806660650906
sVlongitude
p2097
F-122.328855806324
ssVstate_code
p2098
VWA
p2099
ssasba(ivenues
VenueType
p2100
(dp2101
g3
S'Theaters'
p2102
sg5
(lp2103
(dp2104
Vis_claimed
p2105
I01
sVrating
p2106
F4.5
sVmobile_url
p2107
Vhttp://m.yelp.com/biz/seattle-opera-seattle
p2108
sVrating_img_url
p2109
Vhttp://s3-media2.fl.yelpcdn.com/assets/2/www/img/99493c12711e/ico/stars/v1/stars_4_half.png
p2110
sVreview_count
p2111
I34
sVname
p2112
VSeattle Opera
p2113
sVrating_img_url_small
p2114
Vhttp://s3-media2.fl.yelpcdn.com/assets/2/www/img/a5221e66bc70/ico/stars/v1/stars_small_4_half.png
p2115
sVurl
p2116
Vhttp://www.yelp.com/biz/seattle-opera-seattle
p2117
sVis_closed
p2118
I00
sVphone
p2119
V2063897676
p2120
sVsnippet_text
p2121
VMy family loves everything about Seattle Opera.  It is not just a "show" - it's an experience.  The location, McCall Hall is wonderful and I have yet to...
p2122
sVimage_url
p2123
Vhttp://s3-media2.fl.yelpcdn.com/bphoto/Qssjr0Uq95fYcLlXLp75cA/ms.jpg
p2124
sVcategories
p2125
(lp2126
(lp2127
VPerforming Arts
p2128
aVtheater
p2129
aa(lp2130
VOpera & Ballet
p2131
aVopera
p2132
aasVdisplay_phone
p2133
V+1-206-389-7676
p2134
sVrating_img_url_large
p2135
Vhttp://s3-media4.fl.yelpcdn.com/assets/2/www/img/9f83790ff7f6/ico/stars/v1/stars_large_4_half.png
p2136
sVid
p2137
Vseattle-opera-seattle
p2138
sVsnippet_image_url
p2139
Vhttp://s3-media4.fl.yelpcdn.com/assets/srv0/yelp_styleguide/cc4afe21892e/assets/img/default_avatars/user_medium_square.png
p2140
sVlocation
p2141
(dp2142
Vcross_streets
p2143
VN 4th Ave & N 3rd Ave
p2144
sVcity
p2145
VSeattle
p2146
sVdisplay_address
p2147
(lp2148
V321 Mercer St
p2149
aVLower Queen Anne
p2150
aVSeattle, WA 98109
p2151
asVgeo_accuracy
p2152
F9.5
sVneighborhoods
p2153
(lp2154
VLower Queen Anne
p2155
asVpostal_code
p2156
V98109
p2157
sVcountry_code
p2158
VUS
p2159
sVaddress
p2160
(lp2161
V321 Mercer St
p2162
asVcoordinate
p2163
(dp2164
Vlatitude
p2165
F47.624244
sVlongitude
p2166
F-122.350234
ssVstate_code
p2167
VWA
p2168
ssa(dp2169
Vis_claimed
p2170
I01
sVrating
p2171
F4.5
sVmobile_url
p2172
Vhttp://m.yelp.com/biz/the-grand-illusion-cinema-seattle
p2173
sVrating_img_url
p2174
Vhttp://s3-media2.fl.yelpcdn.com/assets/2/www/img/99493c12711e/ico/stars/v1/stars_4_half.png
p2175
sVreview_count
p2176
I43
sVname
p2177
VThe Grand Illusion Cinema
p2178
sVrating_img_url_small
p2179
Vhttp://s3-media2.fl.yelpcdn.com/assets/2/www/img/a5221e66bc70/ico/stars/v1/stars_small_4_half.png
p2180
sVurl
p2181
Vhttp://www.yelp.com/biz/the-grand-illusion-cinema-seattle
p2182
sVis_closed
p2183
I00
sVphone
p2184
V2065233935
p2185
sVsnippet_text
p2186
VI love this place so much! The first time I came here was to see a showing of one of my all-time favorite movies, What's Eating Gilbert Grape. It was...
p2187
sVimage_url
p2188
Vhttp://s3-media2.fl.yelpcdn.com/bphoto/4oXhBUg_nLEPNmUSA--xGA/ms.jpg
p2189
sVcategories
p2190
(lp2191
(lp2192
VCinema
p2193
aVmovietheaters
p2194
aasVdisplay_phone
p2195
V+1-206-523-3935
p2196
sVrating_img_url_large
p2197
Vhttp://s3-media4.fl.yelpcdn.com/assets/2/www/img/9f83790ff7f6/ico/stars/v1/stars_large_4_half.png
p2198
sVid
p2199
Vthe-grand-illusion-cinema-seattle
p2200
sVsnippet_image_url
p2201
Vhttp://s3-media2.fl.yelpcdn.com/photo/CQELpzPCDbK7m4pzE38Yhw/ms.jpg
p2202
sVlocation
p2203
(dp2204
Vcity
p2205
VSeattle
p2206
sVdisplay_address
p2207
(lp2208
V1403 NE 50th St
p2209
aVUniversity District
p2210
aVSeattle, WA 98105
p2211
asVgeo_accuracy
p2212
F8.0
sVneighborhoods
p2213
(lp2214
VUniversity District
p2215
asVpostal_code
p2216
V98105
p2217
sVcountry_code
p2218
VUS
p2219
sVaddress
p2220
(lp2221
V1403 NE 50th St
p2222
asVcoordinate
p2223
(dp2224
Vlatitude
p2225
F47.6648410409689
sVlongitude
p2226
F-122.312855646014
ssVstate_code
p2227
VWA
p2228
ssa(dp2229
Vis_claimed
p2230
I01
sVrating
p2231
F4.5
sVmobile_url
p2232
Vhttp://m.yelp.com/biz/jet-city-improv-seattle-2
p2233
sVrating_img_url
p2234
Vhttp://s3-media2.fl.yelpcdn.com/assets/2/www/img/99493c12711e/ico/stars/v1/stars_4_half.png
p2235
sVreview_count
p2236
I64
sVname
p2237
VJet City Improv
p2238
sVrating_img_url_small
p2239
Vhttp://s3-media2.fl.yelpcdn.com/assets/2/www/img/a5221e66bc70/ico/stars/v1/stars_small_4_half.png
p2240
sVurl
p2241
Vhttp://www.yelp.com/biz/jet-city-improv-seattle-2
p2242
sVis_closed
p2243
I00
sVphone
p2244
V2063528291
p2245
sVsnippet_text
p2246
VI'm rating just the Jet City Improv performance, and not any classes or that type of thing.\u000a\u000aFor $15, the improv shows at Jet City are a great and...
p2247
sVimage_url
p2248
Vhttp://s3-media3.fl.yelpcdn.com/bphoto/Z7Pi8PIqs9IYaokBan4DWA/ms.jpg
p2249
sVcategories
p2250
(lp2251
(lp2252
VPerforming Arts
p2253
aVtheater
p2254
aa(lp2255
VComedy Clubs
p2256
aVcomedyclubs
p2257
aa(lp2258
VVenues & Event Spaces
p2259
aVvenues
p2260
aasVdisplay_phone
p2261
V+1-206-352-8291
p2262
sVrating_img_url_large
p2263
Vhttp://s3-media4.fl.yelpcdn.com/assets/2/www/img/9f83790ff7f6/ico/stars/v1/stars_large_4_half.png
p2264
sVid
p2265
Vjet-city-improv-seattle-2
p2266
sVsnippet_image_url
p2267
Vhttp://s3-media4.fl.yelpcdn.com/photo/rbBFvpQPYx76ZqyyRkaUQA/ms.jpg
p2268
sVlocation
p2269
(dp2270
Vcross_streets
p2271
V55th St & 56th St
p2272
sVcity
p2273
VSeattle
p2274
sVdisplay_address
p2275
(lp2276
V5510 University Way NE
p2277
aVUniversity District
p2278
aVSeattle, WA 98105
p2279
asVgeo_accuracy
p2280
F9.5
sVneighborhoods
p2281
(lp2282
VUniversity District
p2283
asVpostal_code
p2284
V98105
p2285
sVcountry_code
p2286
VUS
p2287
sVaddress
p2288
(lp2289
V5510 University Way NE
p2290
asVcoordinate
p2291
(dp2292
Vlatitude
p2293
F47.6688416
sVlongitude
p2294
F-122.3128739
ssVstate_code
p2295
VWA
p2296
ssa(dp2297
Vis_claimed
p2298
I00
sVrating
p2299
F4.5
sVmobile_url
p2300
Vhttp://m.yelp.com/biz/seattle-international-film-festival-seattle
p2301
sVrating_img_url
p2302
Vhttp://s3-media2.fl.yelpcdn.com/assets/2/www/img/99493c12711e/ico/stars/v1/stars_4_half.png
p2303
sVreview_count
p2304
I20
sVname
p2305
VSeattle International Film Festival
p2306
sVrating_img_url_small
p2307
Vhttp://s3-media2.fl.yelpcdn.com/assets/2/www/img/a5221e66bc70/ico/stars/v1/stars_small_4_half.png
p2308
sVurl
p2309
Vhttp://www.yelp.com/biz/seattle-international-film-festival-seattle
p2310
sVis_closed
p2311
I00
sVphone
p2312
V2063822434
p2313
sVsnippet_text
p2314
VI've watched some great films such as "Food Inc" and "Diana Vreeland: The Eye Has to Travel" over the years. I enjoy independent films so I like this event....
p2315
sVimage_url
p2316
Vhttp://s3-media1.fl.yelpcdn.com/bphoto/TWqAx02pN8uKH8kFwYQ6xg/ms.jpg
p2317
sVcategories
p2318
(lp2319
(lp2320
VFestivals
p2321
aVfestivals
p2322
aa(lp2323
VCinema
p2324
aVmovietheaters
p2325
aasVdisplay_phone
p2326
V+1-206-382-2434
p2327
sVrating_img_url_large
p2328
Vhttp://s3-media4.fl.yelpcdn.com/assets/2/www/img/9f83790ff7f6/ico/stars/v1/stars_large_4_half.png
p2329
sVid
p2330
Vseattle-international-film-festival-seattle
p2331
sVsnippet_image_url
p2332
Vhttp://s3-media2.fl.yelpcdn.com/photo/DNxJT3iIhDIubgxtKDQ-yg/ms.jpg
p2333
sVlocation
p2334
(dp2335
Vcity
p2336
VSeattle
p2337
sVdisplay_address
p2338
(lp2339
VSeattle Center/Northwest Rooms
p2340
aV305 Harrison St
p2341
aVLower Queen Anne
p2342
aVSeattle, WA 98109
p2343
asVgeo_accuracy
p2344
F8.0
sVneighborhoods
p2345
(lp2346
VLower Queen Anne
p2347
asVpostal_code
p2348
V98109
p2349
sVcountry_code
p2350
VUS
p2351
sVaddress
p2352
(lp2353
VSeattle Center/Northwest Rooms
p2354
aV305 Harrison St
p2355
asVcoordinate
p2356
(dp2357
Vlatitude
p2358
F47.62212
sVlongitude
p2359
F-122.354042
ssVstate_code
p2360
VWA
p2361
ssa(dp2362
Vis_claimed
p2363
I01
sVrating
p2364
F4.0
sVmobile_url
p2365
Vhttp://m.yelp.com/biz/pacific-northwest-ballet-seattle
p2366
sVrating_img_url
p2367
Vhttp://s3-media4.fl.yelpcdn.com/assets/2/www/img/c2f3dd9799a5/ico/stars/v1/stars_4.png
p2368
sVreview_count
p2369
I62
sVname
p2370
VPacific Northwest Ballet
p2371
sVrating_img_url_small
p2372
Vhttp://s3-media4.fl.yelpcdn.com/assets/2/www/img/f62a5be2f902/ico/stars/v1/stars_small_4.png
p2373
sVurl
p2374
Vhttp://www.yelp.com/biz/pacific-northwest-ballet-seattle
p2375
sVis_closed
p2376
I00
sVphone
p2377
V2064412424
p2378
sVsnippet_text
p2379
VAmazing! Venue is gorgeous. The staff let us preorder drinks for intermission and had them waiting on a table when we came out! It was also a rainy night so...
p2380
sVimage_url
p2381
Vhttp://s3-media1.fl.yelpcdn.com/bphoto/8Kc33i5oVOUVT4gh7jSw0Q/ms.jpg
p2382
sVcategories
p2383
(lp2384
(lp2385
VPerforming Arts
p2386
aVtheater
p2387
aa(lp2388
VOpera & Ballet
p2389
aVopera
p2390
aasVdisplay_phone
p2391
V+1-206-441-2424
p2392
sVrating_img_url_large
p2393
Vhttp://s3-media2.fl.yelpcdn.com/assets/2/www/img/ccf2b76faa2c/ico/stars/v1/stars_large_4.png
p2394
sVid
p2395
Vpacific-northwest-ballet-seattle
p2396
sVsnippet_image_url
p2397
Vhttp://s3-media4.fl.yelpcdn.com/photo/FxT8h0suEtjP65Tur1g5Xg/ms.jpg
p2398
sVlocation
p2399
(dp2400
Vcity
p2401
VSeattle
p2402
sVdisplay_address
p2403
(lp2404
V301 Mercer St
p2405
aVLower Queen Anne
p2406
aVSeattle, WA 98109
p2407
asVgeo_accuracy
p2408
F9.5
sVneighborhoods
p2409
(lp2410
VLower Queen Anne
p2411
asVpostal_code
p2412
V98109
p2413
sVcountry_code
p2414
VUS
p2415
sVaddress
p2416
(lp2417
V301 Mercer St
p2418
asVcoordinate
p2419
(dp2420
Vlatitude
p2421
F47.624321907778004
sVlongitude
p2422
F-122.35156257971
ssVstate_code
p2423
VWA
p2424
ssasba(ivenues
VenueType
p2425
(dp2426
g3
S'Markets'
p2427
sg5
(lp2428
(dp2429
Vis_claimed
p2430
I01
sVrating
p2431
F5.0
sVmobile_url
p2432
Vhttp://m.yelp.com/biz/fremont-wine-seattle
p2433
sVrating_img_url
p2434
Vhttp://s3-media1.fl.yelpcdn.com/assets/2/www/img/f1def11e4e79/ico/stars/v1/stars_5.png
p2435
sVreview_count
p2436
I52
sVname
p2437
VFremont Wine
p2438
sVrating_img_url_small
p2439
Vhttp://s3-media1.fl.yelpcdn.com/assets/2/www/img/c7623205d5cd/ico/stars/v1/stars_small_5.png
p2440
sVurl
p2441
Vhttp://www.yelp.com/biz/fremont-wine-seattle
p2442
sVis_closed
p2443
I00
sVphone
p2444
V2066321110
p2445
sVsnippet_text
p2446
VA really great place to try wines from Washington state. You can try flights of whites or reds. Yesterday they had a tasting of Primitivo. This grape...
p2447
sVimage_url
p2448
Vhttp://s3-media4.fl.yelpcdn.com/bphoto/SRGARTiQqFk32Pn-fBdbEQ/ms.jpg
p2449
sVcategories
p2450
(lp2451
(lp2452
VWineries
p2453
aVwineries
p2454
aasVdisplay_phone
p2455
V+1-206-632-1110
p2456
sVrating_img_url_large
p2457
Vhttp://s3-media3.fl.yelpcdn.com/assets/2/www/img/22affc4e6c38/ico/stars/v1/stars_large_5.png
p2458
sVid
p2459
Vfremont-wine-seattle
p2460
sVsnippet_image_url
p2461
Vhttp://s3-media1.fl.yelpcdn.com/photo/F0pX5MPXjeVFWpWwldcgiA/ms.jpg
p2462
sVlocation
p2463
(dp2464
Vcross_streets
p2465
V38th St & 36th St
p2466
sVcity
p2467
VSeattle
p2468
sVdisplay_address
p2469
(lp2470
V3601 Fremont Ave N
p2471
aVSte 212
p2472
aVFremont
p2473
aVSeattle, WA 98103
p2474
asVgeo_accuracy
p2475
F9.5
sVneighborhoods
p2476
(lp2477
VFremont
p2478
asVpostal_code
p2479
V98103
p2480
sVcountry_code
p2481
VUS
p2482
sVaddress
p2483
(lp2484
V3601 Fremont Ave N
p2485
aVSte 212
p2486
asVcoordinate
p2487
(dp2488
Vlatitude
p2489
F47.6516377
sVlongitude
p2490
F-122.3501483
ssVstate_code
p2491
VWA
p2492
ssa(dp2493
Vis_claimed
p2494
I00
sVrating
p2495
F4.5
sVmobile_url
p2496
Vhttp://m.yelp.com/biz/ballard-sunday-farmers-market-seattle
p2497
sVrating_img_url
p2498
Vhttp://s3-media2.fl.yelpcdn.com/assets/2/www/img/99493c12711e/ico/stars/v1/stars_4_half.png
p2499
sVreview_count
p2500
I209
sVname
p2501
VBallard Sunday Farmers Market
p2502
sVrating_img_url_small
p2503
Vhttp://s3-media2.fl.yelpcdn.com/assets/2/www/img/a5221e66bc70/ico/stars/v1/stars_small_4_half.png
p2504
sVurl
p2505
Vhttp://www.yelp.com/biz/ballard-sunday-farmers-market-seattle
p2506
sVis_closed
p2507
I00
sVphone
p2508
V2067816776
p2509
sVsnippet_text
p2510
VEven though I know the Ballard farmers market is on Sunday, today I somehow forgot that fact and was pleasantly shocked when we stumbled upon it on our way...
p2511
sVimage_url
p2512
Vhttp://s3-media1.fl.yelpcdn.com/bphoto/DOzd8_EG4U5EC7M9qBUf8g/ms.jpg
p2513
sVcategories
p2514
(lp2515
(lp2516
VFarmers Market
p2517
aVfarmersmarket
p2518
aasVdisplay_phone
p2519
V+1-206-781-6776
p2520
sVrating_img_url_large
p2521
Vhttp://s3-media4.fl.yelpcdn.com/assets/2/www/img/9f83790ff7f6/ico/stars/v1/stars_large_4_half.png
p2522
sVid
p2523
Vballard-sunday-farmers-market-seattle
p2524
sVsnippet_image_url
p2525
Vhttp://s3-media2.fl.yelpcdn.com/photo/t0sTEf-dWgxJeohtEQcmIw/ms.jpg
p2526
sVlocation
p2527
(dp2528
Vcity
p2529
VSeattle
p2530
sVdisplay_address
p2531
(lp2532
VBallard Ave At 22nd Ave
p2533
aVBallard
p2534
aVSeattle, WA 98107
p2535
asVgeo_accuracy
p2536
F7.0
sVneighborhoods
p2537
(lp2538
VBallard
p2539
asVpostal_code
p2540
V98107
p2541
sVcountry_code
p2542
VUS
p2543
sVaddress
p2544
(lp2545
VBallard Ave At 22nd Ave
p2546
asVcoordinate
p2547
(dp2548
Vlatitude
p2549
F47.6676624260855
sVlongitude
p2550
F-122.384797446427
ssVstate_code
p2551
VWA
p2552
ssa(dp2553
Vis_claimed
p2554
I01
sVrating
p2555
F4.5
sVmobile_url
p2556
Vhttp://m.yelp.com/biz/top-banana-seattle
p2557
sVrating_img_url
p2558
Vhttp://s3-media2.fl.yelpcdn.com/assets/2/www/img/99493c12711e/ico/stars/v1/stars_4_half.png
p2559
sVreview_count
p2560
I89
sVname
p2561
VTop Banana
p2562
sVrating_img_url_small
p2563
Vhttp://s3-media2.fl.yelpcdn.com/assets/2/www/img/a5221e66bc70/ico/stars/v1/stars_small_4_half.png
p2564
sVurl
p2565
Vhttp://www.yelp.com/biz/top-banana-seattle
p2566
sVis_closed
p2567
I00
sVphone
p2568
V2067837786
p2569
sVsnippet_text
p2570
VThe best place to buy produce and you are spending your $ supporting a small local business. Have always loved this place! Also don 't forget about buying...
p2571
sVimage_url
p2572
Vhttp://s3-media2.fl.yelpcdn.com/bphoto/3bn2fnrAX_5u02QsLWsu4w/ms.jpg
p2573
sVcategories
p2574
(lp2575
(lp2576
VFruits & Veggies
p2577
aVmarkets
p2578
aasVdisplay_phone
p2579
V+1-206-783-7786
p2580
sVrating_img_url_large
p2581
Vhttp://s3-media4.fl.yelpcdn.com/assets/2/www/img/9f83790ff7f6/ico/stars/v1/stars_large_4_half.png
p2582
sVid
p2583
Vtop-banana-seattle
p2584
sVsnippet_image_url
p2585
Vhttp://s3-media4.fl.yelpcdn.com/assets/srv0/yelp_styleguide/cc4afe21892e/assets/img/default_avatars/user_medium_square.png
p2586
sVlocation
p2587
(dp2588
Vcity
p2589
VSeattle
p2590
sVdisplay_address
p2591
(lp2592
V6501 15th Ave NW
p2593
aVBallard
p2594
aVSeattle, WA 98117
p2595
asVgeo_accuracy
p2596
F8.0
sVneighborhoods
p2597
(lp2598
VBallard
p2599
aVLoyal Heights
p2600
asVpostal_code
p2601
V98117
p2602
sVcountry_code
p2603
VUS
p2604
sVaddress
p2605
(lp2606
V6501 15th Ave NW
p2607
asVcoordinate
p2608
(dp2609
Vlatitude
p2610
F47.6761894
sVlongitude
p2611
F-122.3773193
ssVstate_code
p2612
VWA
p2613
ssa(dp2614
Vis_claimed
p2615
I01
sVrating
p2616
F4.5
sVmobile_url
p2617
Vhttp://m.yelp.com/biz/theo-chocolate-seattle
p2618
sVrating_img_url
p2619
Vhttp://s3-media2.fl.yelpcdn.com/assets/2/www/img/99493c12711e/ico/stars/v1/stars_4_half.png
p2620
sVreview_count
p2621
I581
sVname
p2622
VTheo Chocolate
p2623
sVrating_img_url_small
p2624
Vhttp://s3-media2.fl.yelpcdn.com/assets/2/www/img/a5221e66bc70/ico/stars/v1/stars_small_4_half.png
p2625
sVurl
p2626
Vhttp://www.yelp.com/biz/theo-chocolate-seattle
p2627
sVis_closed
p2628
I00
sVid
p2629
Vtheo-chocolate-seattle
p2630
sVphone
p2631
V2066325100
p2632
sVsnippet_text
p2633
VDescriptive phrase: fun and informative chocolate tour.\u000a\u000aI've been on Theo Chocolate's tour twice now, two years apart, and can say they're still offering a...
p2634
sVimage_url
p2635
Vhttp://s3-media4.fl.yelpcdn.com/bphoto/bBgtED3rtmwhJryt0pzkEg/ms.jpg
p2636
sVcategories
p2637
(lp2638
(lp2639
VChocolatiers & Shops
p2640
aVchocolate
p2641
aa(lp2642
VCandy Stores
p2643
aVcandy
p2644
aasVdisplay_phone
p2645
V+1-206-632-5100
p2646
sVrating_img_url_large
p2647
Vhttp://s3-media4.fl.yelpcdn.com/assets/2/www/img/9f83790ff7f6/ico/stars/v1/stars_large_4_half.png
p2648
sVmenu_provider
p2649
Vsingle_platform
p2650
sVmenu_date_updated
p2651
I1387625990
sVsnippet_image_url
p2652
Vhttp://s3-media1.fl.yelpcdn.com/photo/NCO3F680hh10svqE9pMDzA/ms.jpg
p2653
sVlocation
p2654
(dp2655
Vcross_streets
p2656
VCanal St & 35th St
p2657
sVcity
p2658
VSeattle
p2659
sVdisplay_address
p2660
(lp2661
V3400 Phinney Ave N
p2662
aVFremont
p2663
aVSeattle, WA 98103
p2664
asVgeo_accuracy
p2665
F8.0
sVneighborhoods
p2666
(lp2667
VFremont
p2668
asVpostal_code
p2669
V98103
p2670
sVcountry_code
p2671
VUS
p2672
sVaddress
p2673
(lp2674
V3400 Phinney Ave N
p2675
asVcoordinate
p2676
(dp2677
Vlatitude
p2678
F47.650879
sVlongitude
p2679
F-122.354103
ssVstate_code
p2680
VWA
p2681
ssa(dp2682
Vis_claimed
p2683
I01
sVrating
p2684
F4.5
sVmobile_url
p2685
Vhttp://m.yelp.com/biz/take-5-urban-market-seattle
p2686
sVrating_img_url
p2687
Vhttp://s3-media2.fl.yelpcdn.com/assets/2/www/img/99493c12711e/ico/stars/v1/stars_4_half.png
p2688
sVreview_count
p2689
I144
sVname
p2690
VTake 5 Urban Market
p2691
sVrating_img_url_small
p2692
Vhttp://s3-media2.fl.yelpcdn.com/assets/2/www/img/a5221e66bc70/ico/stars/v1/stars_small_4_half.png
p2693
sVurl
p2694
Vhttp://www.yelp.com/biz/take-5-urban-market-seattle
p2695
sVis_closed
p2696
I00
sVphone
p2697
V2064208104
p2698
sVsnippet_text
p2699
VYummy yummy comfort food and a mini  upscale convenience store all in one!  We love their mac n cheese, but also can't get enough of their desserts...
p2700
sVimage_url
p2701
Vhttp://s3-media2.fl.yelpcdn.com/bphoto/l9uwYXWfwIcQtnOyWazNYg/ms.jpg
p2702
sVcategories
p2703
(lp2704
(lp2705
VDelis
p2706
aVdelis
p2707
aa(lp2708
VConvenience Stores
p2709
aVconvenience
p2710
aa(lp2711
VGrocery
p2712
aVgrocery
p2713
aasVdisplay_phone
p2714
V+1-206-420-8104
p2715
sVrating_img_url_large
p2716
Vhttp://s3-media4.fl.yelpcdn.com/assets/2/www/img/9f83790ff7f6/ico/stars/v1/stars_large_4_half.png
p2717
sVid
p2718
Vtake-5-urban-market-seattle
p2719
sVsnippet_image_url
p2720
Vhttp://s3-media4.fl.yelpcdn.com/photo/SENS3eaJcPPbqOcVWBVIXQ/ms.jpg
p2721
sVlocation
p2722
(dp2723
Vcross_streets
p2724
V67th St & 70th St
p2725
sVcity
p2726
VSeattle
p2727
sVdisplay_address
p2728
(lp2729
V6757 8th Ave NW
p2730
aVPhinney Ridge
p2731
aVSeattle, WA 98117
p2732
asVgeo_accuracy
p2733
F8.0
sVneighborhoods
p2734
(lp2735
VPhinney Ridge
p2736
aVBallard
p2737
asVpostal_code
p2738
V98117
p2739
sVcountry_code
p2740
VUS
p2741
sVaddress
p2742
(lp2743
V6757 8th Ave NW
p2744
asVcoordinate
p2745
(dp2746
Vlatitude
p2747
F47.67939
sVlongitude
p2748
F-122.3662567
ssVstate_code
p2749
VWA
p2750
ssasba.