(lp0
(ivenues
VenueType
p1
(dp2
S'name'
p3
S'Restaurants'
p4
sS'yelp_results'
p5
(lp6
(dp7
Vis_claimed
p8
I01
sVrating
p9
F5.0
sVmobile_url
p10
Vhttp://m.yelp.com/biz/mad-dawgs-hot-dogs-seattle
p11
sVrating_img_url
p12
Vhttp://s3-media1.fl.yelpcdn.com/assets/2/www/img/f1def11e4e79/ico/stars/v1/stars_5.png
p13
sVreview_count
p14
I32
sVname
p15
VMad Dawg's Hot Dogs
p16
sVrating_img_url_small
p17
Vhttp://s3-media1.fl.yelpcdn.com/assets/2/www/img/c7623205d5cd/ico/stars/v1/stars_small_5.png
p18
sVurl
p19
Vhttp://www.yelp.com/biz/mad-dawgs-hot-dogs-seattle
p20
sVis_closed
p21
I00
sVdeals
p22
(lp23
(dp24
Vwhat_you_get
p25
VYou get a voucher redeemable for $20 at Mad Dawg's Hot Dogs.\u000aPrint out your voucher, or redeem on your phone with the <a href="http://www.yelp.com/yelpmobile">Yelp app</a>.
p26
sVtime_start
p27
I1375306261
sVtitle
p28
V$18 for $20
p29
sVurl
p30
Vhttp://www.yelp.com/deals/mad-dawgs-hot-dogs-seattle
p31
sVadditional_restrictions
p32
VPromotion lasts for 1 year from date of purchase. After that period, your voucher is redeemable for the amount you paid, less any value you may have received. Not valid with other vouchers, certificates, or offers. Only 1 voucher(s) can be purchased and redeemed per person. Up to 3 can be purchased as gifts for others. Subject to the <a target="_blank" href="http://www.yelp.com/tos/general_b2c_us_20120911">General Terms</a>.
p33
sVid
p34
VdQQJls7Vv8k49ykG8EnQWA
p35
sVimportant_restrictions
p36
VLimit 1 voucher(s) per table.
p37
sVimage_url
p38
Vhttp://s3-media3.fl.yelpcdn.com/dphoto/MD4I_P-MTrw5CRPyG4XXrQ/m.jpg
p39
sVoptions
p40
(lp41
(dp42
Voriginal_price
p43
I2000
sVtitle
p44
V$18 for $20
p45
sVprice
p46
I1800
sVpurchase_url
p47
Vhttps://www.yelp.com/checkout/deal/rt4VNgCG755zWcMpdOrn8Q
p48
sVformatted_original_price
p49
V$20
p50
sVformatted_price
p51
V$18
p52
sVis_quantity_limited
p53
I00
sasVcurrency_code
p54
VUSD
p55
sasVphone
p56
V2063103362
p57
sVsnippet_text
p58
VI am always a fan of street hotdogs after a night out, especially a good Seattle dog. This place I located on the bottom of QA across from Ozzies which is a...
p59
sVimage_url
p60
Vhttp://s3-media4.fl.yelpcdn.com/bphoto/6cATo2IP0MPgyRIPG_40XQ/ms.jpg
p61
sVcategories
p62
(lp63
(lp64
VHot Dogs
p65
aVhotdog
p66
aa(lp67
VFood Stands
p68
aVfoodstands
p69
aa(lp70
VCaterers
p71
aVcatering
p72
aasVdisplay_phone
p73
V+1-206-310-3362
p74
sVgift_certificates
p75
(lp76
(dp77
Vurl
p78
Vhttp://www.yelp.com/gift-certificates/mad-dawgs-hot-dogs-seattle
p79
sVunused_balances
p80
VCREDIT
p81
sVid
p82
Vvm425dxBE_hRl9Qf3iUUHA
p83
sVimage_url
p84
Vhttp://s3-media2.fl.yelpcdn.com/bphoto/nPPyeDHi5rg5oPRIlWlhDg/m.jpg
p85
sVoptions
p86
(lp87
(dp88
Vprice
p89
I1000
sVformatted_price
p90
V$10
p91
sa(dp92
Vprice
p93
I2500
sVformatted_price
p94
V$25
p95
sa(dp96
Vprice
p97
I5000
sVformatted_price
p98
V$50
p99
sa(dp100
Vprice
p101
I7500
sVformatted_price
p102
V$75
p103
sa(dp104
Vprice
p105
I10000
sVformatted_price
p106
V$100
p107
sa(dp108
Vprice
p109
I15000
sVformatted_price
p110
V$150
p111
sa(dp112
Vprice
p113
I25000
sVformatted_price
p114
V$250
p115
sasVcurrency_code
p116
VUSD
p117
sasVrating_img_url_large
p118
Vhttp://s3-media3.fl.yelpcdn.com/assets/2/www/img/22affc4e6c38/ico/stars/v1/stars_large_5.png
p119
sVid
p120
Vmad-dawgs-hot-dogs-seattle
p121
sVsnippet_image_url
p122
Vhttp://s3-media1.fl.yelpcdn.com/photo/POj_4SivFN0zxwkK49jYTg/ms.jpg
p123
sVlocation
p124
(dp125
Vcross_streets
p126
V1st Ave W & W Mercer St
p127
sVcity
p128
VSeattle
p129
sVdisplay_address
p130
(lp131
VW Mercer St
p132
aVLower Queen Anne
p133
aVSeattle, WA 98119
p134
asVgeo_accuracy
p135
F9.5
sVneighborhoods
p136
(lp137
VLower Queen Anne
p138
asVpostal_code
p139
V98119
p140
sVcountry_code
p141
VUS
p142
sVaddress
p143
(lp144
VW Mercer St
p145
asVcoordinate
p146
(dp147
Vlatitude
p148
F47.624822
sVlongitude
p149
F-122.358173
ssVstate_code
p150
VWA
p151
ssa(dp152
Vis_claimed
p153
I01
sVrating
p154
F5.0
sVmobile_url
p155
Vhttp://m.yelp.com/biz/cederberg-tea-house-seattle-2
p156
sVrating_img_url
p157
Vhttp://s3-media1.fl.yelpcdn.com/assets/2/www/img/f1def11e4e79/ico/stars/v1/stars_5.png
p158
sVreview_count
p159
I77
sVname
p160
VCederberg Tea House
p161
sVrating_img_url_small
p162
Vhttp://s3-media1.fl.yelpcdn.com/assets/2/www/img/c7623205d5cd/ico/stars/v1/stars_small_5.png
p163
sVurl
p164
Vhttp://www.yelp.com/biz/cederberg-tea-house-seattle-2
p165
sVis_closed
p166
I00
sVid
p167
Vcederberg-tea-house-seattle-2
p168
sVphone
p169
V2062851352
p170
sVsnippet_text
p171
VGreat service and yummy pastries and the Roobios expresso machine is amazing!!! Does not get any better! \u000a\u000aI always get the sausage roll and the roobios...
p172
sVimage_url
p173
Vhttp://s3-media4.fl.yelpcdn.com/bphoto/hFUYyyRzpx7G3oTbAsbCkw/ms.jpg
p174
sVcategories
p175
(lp176
(lp177
VCoffee & Tea
p178
aVcoffee
p179
aa(lp180
VBakeries
p181
aVbakeries
p182
aa(lp183
VSouth African
p184
aVsouthafrican
p185
aasVdisplay_phone
p186
V+1-206-285-1352
p187
sVrating_img_url_large
p188
Vhttp://s3-media3.fl.yelpcdn.com/assets/2/www/img/22affc4e6c38/ico/stars/v1/stars_large_5.png
p189
sVmenu_provider
p190
Vsingle_platform
p191
sVmenu_date_updated
p192
I1399106263
sVsnippet_image_url
p193
Vhttp://s3-media3.fl.yelpcdn.com/photo/_sSNvod-83KTuoPcvEi7Nw/ms.jpg
p194
sVlocation
p195
(dp196
Vcross_streets
p197
VGaler St & Lee St
p198
sVcity
p199
VSeattle
p200
sVdisplay_address
p201
(lp202
V1417 Queen Anne Ave N
p203
aVSte 101 B
p204
aVQueen Anne
p205
aVSeattle, WA 98109
p206
asVgeo_accuracy
p207
F9.5
sVneighborhoods
p208
(lp209
VQueen Anne
p210
asVpostal_code
p211
V98109
p212
sVcountry_code
p213
VUS
p214
sVaddress
p215
(lp216
V1417 Queen Anne Ave N
p217
aVSte 101 B
p218
asVcoordinate
p219
(dp220
Vlatitude
p221
F47.6321057378511
sVlongitude
p222
F-122.356939564896
ssVstate_code
p223
VWA
p224
ssa(dp225
Vis_claimed
p226
I01
sVrating
p227
F4.5
sVmobile_url
p228
Vhttp://m.yelp.com/biz/nosh-seattle
p229
sVrating_img_url
p230
Vhttp://s3-media2.fl.yelpcdn.com/assets/2/www/img/99493c12711e/ico/stars/v1/stars_4_half.png
p231
sVreview_count
p232
I63
sVname
p233
VNosh
p234
sVrating_img_url_small
p235
Vhttp://s3-media2.fl.yelpcdn.com/assets/2/www/img/a5221e66bc70/ico/stars/v1/stars_small_4_half.png
p236
sVurl
p237
Vhttp://www.yelp.com/biz/nosh-seattle
p238
sVis_closed
p239
I00
sVphone
p240
V2064898712
p241
sVsnippet_text
p242
VFood: 5/5\u000aService: 5/5\u000aAmbiance: 4/5\u000a\u000aNo seating but this truck is close to work offices in SLU on Wednesdays by the Toyota dealership. And if you go at the...
p243
sVimage_url
p244
Vhttp://s3-media3.fl.yelpcdn.com/bphoto/zzowuTqiSPJL8zry396oCw/ms.jpg
p245
sVcategories
p246
(lp247
(lp248
VAmerican (New)
p249
aVnewamerican
p250
aa(lp251
VFood Trucks
p252
aVfoodtrucks
p253
aa(lp254
VBritish
p255
aVbritish
p256
aasVdisplay_phone
p257
V+1-206-489-8712
p258
sVrating_img_url_large
p259
Vhttp://s3-media4.fl.yelpcdn.com/assets/2/www/img/9f83790ff7f6/ico/stars/v1/stars_large_4_half.png
p260
sVid
p261
Vnosh-seattle
p262
sVsnippet_image_url
p263
Vhttp://s3-media4.fl.yelpcdn.com/photo/m7ur9IHcTtjsNiLDhwmIGg/ms.jpg
p264
sVlocation
p265
(dp266
Vcity
p267
VSeattle
p268
sVdisplay_address
p269
(lp270
VQueen Anne
p271
aVSeattle, WA 98109
p272
asVgeo_accuracy
p273
F9.5
sVneighborhoods
p274
(lp275
VQueen Anne
p276
asVpostal_code
p277
V98109
p278
sVcountry_code
p279
VUS
p280
sVaddress
p281
(lp282
sVcoordinate
p283
(dp284
Vlatitude
p285
F47.6288591
sVlongitude
p286
F-122.3456919
ssVstate_code
p287
VWA
p288
ssa(dp289
Vis_claimed
p290
I01
sVrating
p291
F4.5
sVmobile_url
p292
Vhttp://m.yelp.com/biz/some-random-bar-seattle
p293
sVrating_img_url
p294
Vhttp://s3-media2.fl.yelpcdn.com/assets/2/www/img/99493c12711e/ico/stars/v1/stars_4_half.png
p295
sVreview_count
p296
I192
sVname
p297
VSome Random Bar
p298
sVrating_img_url_small
p299
Vhttp://s3-media2.fl.yelpcdn.com/assets/2/www/img/a5221e66bc70/ico/stars/v1/stars_small_4_half.png
p300
sVurl
p301
Vhttp://www.yelp.com/biz/some-random-bar-seattle
p302
sVis_closed
p303
I00
sVphone
p304
V2067452185
p305
sVsnippet_text
p306
VSince switching jobs, I now find myself in Seattle about once a month. On my most recent trip, I decided to try walking around Belltown to see if there was...
p307
sVimage_url
p308
Vhttp://s3-media4.fl.yelpcdn.com/bphoto/LuVmYqc5P4fD2tfuMHsEng/ms.jpg
p309
sVcategories
p310
(lp311
(lp312
VPubs
p313
aVpubs
p314
aa(lp315
VAmerican (New)
p316
aVnewamerican
p317
aasVdisplay_phone
p318
V+1-206-745-2185
p319
sVrating_img_url_large
p320
Vhttp://s3-media4.fl.yelpcdn.com/assets/2/www/img/9f83790ff7f6/ico/stars/v1/stars_large_4_half.png
p321
sVid
p322
Vsome-random-bar-seattle
p323
sVsnippet_image_url
p324
Vhttp://s3-media2.fl.yelpcdn.com/photo/ITJv90bb-LwtIsCOY8PgXQ/ms.jpg
p325
sVlocation
p326
(dp327
Vcross_streets
p328
VCedar St & Vine St
p329
sVcity
p330
VSeattle
p331
sVdisplay_address
p332
(lp333
V2604 1st Ave
p334
aVBelltown
p335
aVSeattle, WA 98121
p336
asVgeo_accuracy
p337
F9.5
sVneighborhoods
p338
(lp339
VBelltown
p340
asVpostal_code
p341
V98121
p342
sVcountry_code
p343
VUS
p344
sVaddress
p345
(lp346
V2604 1st Ave
p347
asVcoordinate
p348
(dp349
Vlatitude
p350
F47.6152835
sVlongitude
p351
F-122.3497103
ssVstate_code
p352
VWA
p353
ssa(dp354
Vis_claimed
p355
I01
sVrating
p356
F4.5
sVmobile_url
p357
Vhttp://m.yelp.com/biz/ten-on-9th-seattle
p358
sVrating_img_url
p359
Vhttp://s3-media2.fl.yelpcdn.com/assets/2/www/img/99493c12711e/ico/stars/v1/stars_4_half.png
p360
sVreview_count
p361
I37
sVname
p362
VTen on 9th
p363
sVrating_img_url_small
p364
Vhttp://s3-media2.fl.yelpcdn.com/assets/2/www/img/a5221e66bc70/ico/stars/v1/stars_small_4_half.png
p365
sVurl
p366
Vhttp://www.yelp.com/biz/ten-on-9th-seattle
p367
sVis_closed
p368
I00
sVphone
p369
V2066230301
p370
sVsnippet_text
p371
VI am a little obsessed with this place. The craft cocktails are just...amazing. I'm usually a wine person, but here...here I get cocktails. Everything is...
p372
sVimage_url
p373
Vhttp://s3-media2.fl.yelpcdn.com/bphoto/aSGSGkEd38q6yiBbuLeAhA/ms.jpg
p374
sVcategories
p375
(lp376
(lp377
VCocktail Bars
p378
aVcocktailbars
p379
aa(lp380
VAmerican (New)
p381
aVnewamerican
p382
aasVdisplay_phone
p383
V+1-206-623-0301
p384
sVrating_img_url_large
p385
Vhttp://s3-media4.fl.yelpcdn.com/assets/2/www/img/9f83790ff7f6/ico/stars/v1/stars_large_4_half.png
p386
sVid
p387
Vten-on-9th-seattle
p388
sVsnippet_image_url
p389
Vhttp://s3-media1.fl.yelpcdn.com/photo/KWfl0bQwfrwKu7HMZA2w2Q/ms.jpg
p390
sVlocation
p391
(dp392
Vcross_streets
p393
VThomas St & John St
p394
sVcity
p395
VSeattle
p396
sVdisplay_address
p397
(lp398
V227 9th Ave N
p399
aVSte A
p400
aVSouth Lake Union
p401
aVSeattle, WA 98109
p402
asVgeo_accuracy
p403
F8.0
sVneighborhoods
p404
(lp405
VSouth Lake Union
p406
asVpostal_code
p407
V98109
p408
sVcountry_code
p409
VUS
p410
sVaddress
p411
(lp412
V227 9th Ave N
p413
aVSte A
p414
asVcoordinate
p415
(dp416
Vlatitude
p417
F47.620541
sVlongitude
p418
F-122.340149
ssVstate_code
p419
VWA
p420
ssasba(ivenues
VenueType
p421
(dp422
g3
S'Cafes'
p423
sg5
(lp424
(dp425
Vis_claimed
p426
I01
sVrating
p427
F5.0
sVmobile_url
p428
Vhttp://m.yelp.com/biz/cederberg-tea-house-seattle-2
p429
sVrating_img_url
p430
Vhttp://s3-media1.fl.yelpcdn.com/assets/2/www/img/f1def11e4e79/ico/stars/v1/stars_5.png
p431
sVreview_count
p432
I77
sVname
p433
VCederberg Tea House
p434
sVrating_img_url_small
p435
Vhttp://s3-media1.fl.yelpcdn.com/assets/2/www/img/c7623205d5cd/ico/stars/v1/stars_small_5.png
p436
sVurl
p437
Vhttp://www.yelp.com/biz/cederberg-tea-house-seattle-2
p438
sVis_closed
p439
I00
sVid
p440
Vcederberg-tea-house-seattle-2
p441
sVphone
p442
V2062851352
p443
sVsnippet_text
p444
VGreat service and yummy pastries and the Roobios expresso machine is amazing!!! Does not get any better! \u000a\u000aI always get the sausage roll and the roobios...
p445
sVimage_url
p446
Vhttp://s3-media4.fl.yelpcdn.com/bphoto/hFUYyyRzpx7G3oTbAsbCkw/ms.jpg
p447
sVcategories
p448
(lp449
(lp450
VCoffee & Tea
p451
aVcoffee
p452
aa(lp453
VBakeries
p454
aVbakeries
p455
aa(lp456
VSouth African
p457
aVsouthafrican
p458
aasVdisplay_phone
p459
V+1-206-285-1352
p460
sVrating_img_url_large
p461
Vhttp://s3-media3.fl.yelpcdn.com/assets/2/www/img/22affc4e6c38/ico/stars/v1/stars_large_5.png
p462
sVmenu_provider
p463
Vsingle_platform
p464
sVmenu_date_updated
p465
I1399106263
sVsnippet_image_url
p466
Vhttp://s3-media3.fl.yelpcdn.com/photo/_sSNvod-83KTuoPcvEi7Nw/ms.jpg
p467
sVlocation
p468
(dp469
Vcross_streets
p470
VGaler St & Lee St
p471
sVcity
p472
VSeattle
p473
sVdisplay_address
p474
(lp475
V1417 Queen Anne Ave N
p476
aVSte 101 B
p477
aVQueen Anne
p478
aVSeattle, WA 98109
p479
asVgeo_accuracy
p480
F9.5
sVneighborhoods
p481
(lp482
VQueen Anne
p483
asVpostal_code
p484
V98109
p485
sVcountry_code
p486
VUS
p487
sVaddress
p488
(lp489
V1417 Queen Anne Ave N
p490
aVSte 101 B
p491
asVcoordinate
p492
(dp493
Vlatitude
p494
F47.6321057378511
sVlongitude
p495
F-122.356939564896
ssVstate_code
p496
VWA
p497
ssa(dp498
Vis_claimed
p499
I01
sVrating
p500
F5.0
sVmobile_url
p501
Vhttp://m.yelp.com/biz/cafe-barjot-seattle
p502
sVrating_img_url
p503
Vhttp://s3-media1.fl.yelpcdn.com/assets/2/www/img/f1def11e4e79/ico/stars/v1/stars_5.png
p504
sVreview_count
p505
I28
sVname
p506
VCafe Barjot
p507
sVrating_img_url_small
p508
Vhttp://s3-media1.fl.yelpcdn.com/assets/2/www/img/c7623205d5cd/ico/stars/v1/stars_small_5.png
p509
sVurl
p510
Vhttp://www.yelp.com/biz/cafe-barjot-seattle
p511
sVis_closed
p512
I00
sVphone
p513
V2064575424
p514
sVsnippet_text
p515
VThis place is so cute! I love the neighborhood feel. My friend and I came here for lunch the other day, and I was so happy with our experience. The menu is...
p516
sVimage_url
p517
Vhttp://s3-media2.fl.yelpcdn.com/bphoto/CBK2-Y7o-JXsj9VMd6O7RQ/ms.jpg
p518
sVcategories
p519
(lp520
(lp521
VCoffee & Tea
p522
aVcoffee
p523
aa(lp524
VBakeries
p525
aVbakeries
p526
aa(lp527
VCafes
p528
aVcafes
p529
aasVdisplay_phone
p530
V+1-206-457-5424
p531
sVrating_img_url_large
p532
Vhttp://s3-media3.fl.yelpcdn.com/assets/2/www/img/22affc4e6c38/ico/stars/v1/stars_large_5.png
p533
sVid
p534
Vcafe-barjot-seattle
p535
sVsnippet_image_url
p536
Vhttp://s3-media4.fl.yelpcdn.com/photo/6KbZiPRswzuRRiLUIu5RBA/ms.jpg
p537
sVlocation
p538
(dp539
Vcross_streets
p540
VRoy St
p541
sVcity
p542
VSeattle
p543
sVdisplay_address
p544
(lp545
V711 Bellevue Ave E
p546
aVCapitol Hill
p547
aVSeattle, WA 98102
p548
asVgeo_accuracy
p549
F9.5
sVneighborhoods
p550
(lp551
VCapitol Hill
p552
asVpostal_code
p553
V98102
p554
sVcountry_code
p555
VUS
p556
sVaddress
p557
(lp558
V711 Bellevue Ave E
p559
asVcoordinate
p560
(dp561
Vlatitude
p562
F47.6253781
sVlongitude
p563
F-122.326854
ssVstate_code
p564
VWA
p565
ssa(dp566
Vis_claimed
p567
I01
sVrating
p568
F4.5
sVmobile_url
p569
Vhttp://m.yelp.com/biz/moore-coffee-shop-seattle
p570
sVrating_img_url
p571
Vhttp://s3-media2.fl.yelpcdn.com/assets/2/www/img/99493c12711e/ico/stars/v1/stars_4_half.png
p572
sVreview_count
p573
I291
sVname
p574
VMoore Coffee Shop
p575
sVrating_img_url_small
p576
Vhttp://s3-media2.fl.yelpcdn.com/assets/2/www/img/a5221e66bc70/ico/stars/v1/stars_small_4_half.png
p577
sVurl
p578
Vhttp://www.yelp.com/biz/moore-coffee-shop-seattle
p579
sVis_closed
p580
I00
sVphone
p581
V2068837044
p582
sVsnippet_text
p583
VThere are many coffee shops in Seattle, but this might be my favorite. The coffee is good, but the combination of listening to melancholy jazz from the 40s...
p584
sVimage_url
p585
Vhttp://s3-media3.fl.yelpcdn.com/bphoto/cH8YbaKxnTYEPWxI80dwvw/ms.jpg
p586
sVcategories
p587
(lp588
(lp589
VCoffee & Tea
p590
aVcoffee
p591
aa(lp592
VSandwiches
p593
aVsandwiches
p594
aa(lp595
VCafes
p596
aVcafes
p597
aasVdisplay_phone
p598
V+1-206-883-7044
p599
sVrating_img_url_large
p600
Vhttp://s3-media4.fl.yelpcdn.com/assets/2/www/img/9f83790ff7f6/ico/stars/v1/stars_large_4_half.png
p601
sVid
p602
Vmoore-coffee-shop-seattle
p603
sVsnippet_image_url
p604
Vhttp://s3-media2.fl.yelpcdn.com/photo/YOxZ4z_JAilYe-JygH6EmA/ms.jpg
p605
sVlocation
p606
(dp607
Vcross_streets
p608
VStewart St & Virginia St
p609
sVcity
p610
VSeattle
p611
sVdisplay_address
p612
(lp613
V1930 2nd Ave
p614
aVBelltown
p615
aVSeattle, WA 98101
p616
asVgeo_accuracy
p617
F9.5
sVneighborhoods
p618
(lp619
VBelltown
p620
asVpostal_code
p621
V98101
p622
sVcountry_code
p623
VUS
p624
sVaddress
p625
(lp626
V1930 2nd Ave
p627
asVcoordinate
p628
(dp629
Vlatitude
p630
F47.611705
sVlongitude
p631
F-122.3412531
ssVstate_code
p632
VWA
p633
ssa(dp634
Vis_claimed
p635
I01
sVrating
p636
F4.5
sVmobile_url
p637
Vhttp://m.yelp.com/biz/street-bean-espresso-seattle
p638
sVrating_img_url
p639
Vhttp://s3-media2.fl.yelpcdn.com/assets/2/www/img/99493c12711e/ico/stars/v1/stars_4_half.png
p640
sVreview_count
p641
I116
sVname
p642
VStreet Bean Espresso
p643
sVrating_img_url_small
p644
Vhttp://s3-media2.fl.yelpcdn.com/assets/2/www/img/a5221e66bc70/ico/stars/v1/stars_small_4_half.png
p645
sVurl
p646
Vhttp://www.yelp.com/biz/street-bean-espresso-seattle
p647
sVis_closed
p648
I00
sVphone
p649
V2067086803
p650
sVsnippet_text
p651
VBest coffee I had while in Seattle! Very cool pour-over coffees that have such unique flavor. Cool atmosphere as well - I liked the music they played both...
p652
sVimage_url
p653
Vhttp://s3-media2.fl.yelpcdn.com/bphoto/fLlxXcm6KnHP8r1fnv0Tlw/ms.jpg
p654
sVcategories
p655
(lp656
(lp657
VCoffee & Tea
p658
aVcoffee
p659
aasVdisplay_phone
p660
V+1-206-708-6803
p661
sVrating_img_url_large
p662
Vhttp://s3-media4.fl.yelpcdn.com/assets/2/www/img/9f83790ff7f6/ico/stars/v1/stars_large_4_half.png
p663
sVid
p664
Vstreet-bean-espresso-seattle
p665
sVsnippet_image_url
p666
Vhttp://s3-media1.fl.yelpcdn.com/photo/aETwfuGRAymrIsSP1si_RA/ms.jpg
p667
sVlocation
p668
(dp669
Vcross_streets
p670
VCedar St & Clay St
p671
sVcity
p672
VSeattle
p673
sVdisplay_address
p674
(lp675
V2702 3rd Ave
p676
aVBelltown
p677
aVSeattle, WA 98121
p678
asVgeo_accuracy
p679
F8.0
sVneighborhoods
p680
(lp681
VBelltown
p682
asVpostal_code
p683
V98121
p684
sVcountry_code
p685
VUS
p686
sVaddress
p687
(lp688
V2702 3rd Ave
p689
asVcoordinate
p690
(dp691
Vlatitude
p692
F47.6172707229853
sVlongitude
p693
F-122.349045351148
ssVstate_code
p694
VWA
p695
ssa(dp696
Vis_claimed
p697
I01
sVrating
p698
F5.0
sVmobile_url
p699
Vhttp://m.yelp.com/biz/drip-city-coffee-co-seattle
p700
sVrating_img_url
p701
Vhttp://s3-media1.fl.yelpcdn.com/assets/2/www/img/f1def11e4e79/ico/stars/v1/stars_5.png
p702
sVreview_count
p703
I68
sVname
p704
VDrip City Coffee Co.
p705
sVrating_img_url_small
p706
Vhttp://s3-media1.fl.yelpcdn.com/assets/2/www/img/c7623205d5cd/ico/stars/v1/stars_small_5.png
p707
sVurl
p708
Vhttp://www.yelp.com/biz/drip-city-coffee-co-seattle
p709
sVis_closed
p710
I00
sVphone
p711
V2067783729
p712
sVsnippet_text
p713
VThis was the magical place that made me question everything about life and living in Los Angeles. Why did this have to be the last drip (pun intended) of...
p714
sVimage_url
p715
Vhttp://s3-media1.fl.yelpcdn.com/bphoto/bdEYmxkJebnaTE7fCDMo8g/ms.jpg
p716
sVcategories
p717
(lp718
(lp719
VCoffee & Tea
p720
aVcoffee
p721
aa(lp722
VBeer, Wine & Spirits
p723
aVbeer_and_wine
p724
aasVdisplay_phone
p725
V+1-206-778-3729
p726
sVrating_img_url_large
p727
Vhttp://s3-media3.fl.yelpcdn.com/assets/2/www/img/22affc4e6c38/ico/stars/v1/stars_large_5.png
p728
sVid
p729
Vdrip-city-coffee-co-seattle
p730
sVsnippet_image_url
p731
Vhttp://s3-media1.fl.yelpcdn.com/photo/UgD7_YVyIi889ZWRRb0kzw/ms.jpg
p732
sVlocation
p733
(dp734
Vcross_streets
p735
VBroad St & Eagle St
p736
sVcity
p737
VSeattle
p738
sVdisplay_address
p739
(lp740
V2929 1st Ave
p741
aVBelltown
p742
aVSeattle, WA 98121
p743
asVgeo_accuracy
p744
F8.0
sVneighborhoods
p745
(lp746
VBelltown
p747
asVpostal_code
p748
V98121
p749
sVcountry_code
p750
VUS
p751
sVaddress
p752
(lp753
V2929 1st Ave
p754
asVcoordinate
p755
(dp756
Vlatitude
p757
F47.617221
sVlongitude
p758
F-122.353622
ssVstate_code
p759
VWA
p760
ssasba(ivenues
VenueType
p761
(dp762
g3
S'Bars'
p763
sg5
(lp764
(dp765
Vis_claimed
p766
I01
sVrating
p767
F4.5
sVmobile_url
p768
Vhttp://m.yelp.com/biz/le-caviste-seattle
p769
sVrating_img_url
p770
Vhttp://s3-media2.fl.yelpcdn.com/assets/2/www/img/99493c12711e/ico/stars/v1/stars_4_half.png
p771
sVreview_count
p772
I40
sVname
p773
VLe Caviste
p774
sVrating_img_url_small
p775
Vhttp://s3-media2.fl.yelpcdn.com/assets/2/www/img/a5221e66bc70/ico/stars/v1/stars_small_4_half.png
p776
sVurl
p777
Vhttp://www.yelp.com/biz/le-caviste-seattle
p778
sVis_closed
p779
I00
sVphone
p780
V2067282657
p781
sVsnippet_text
p782
VI was reluctant to try a wine bar but this place is fantastic. Definitely try the monlin-a-vent, it's great for non wine drinkers such as myself. \u000a\u000aThe meat...
p783
sVimage_url
p784
Vhttp://s3-media1.fl.yelpcdn.com/bphoto/8TScocKRuur0oKcq-r0Chw/ms.jpg
p785
sVcategories
p786
(lp787
(lp788
VWine Bars
p789
aVwine_bars
p790
aa(lp791
VFrench
p792
aVfrench
p793
aasVdisplay_phone
p794
V+1-206-728-2657
p795
sVrating_img_url_large
p796
Vhttp://s3-media4.fl.yelpcdn.com/assets/2/www/img/9f83790ff7f6/ico/stars/v1/stars_large_4_half.png
p797
sVid
p798
Vle-caviste-seattle
p799
sVsnippet_image_url
p800
Vhttp://s3-media4.fl.yelpcdn.com/photo/BrXJ7rhyYUv0Pofn0unJnA/ms.jpg
p801
sVlocation
p802
(dp803
Vcross_streets
p804
VVirginia St & Stewart St
p805
sVcity
p806
VSeattle
p807
sVdisplay_address
p808
(lp809
V1919 7th Ave
p810
aVDenny Triangle
p811
aVSeattle, WA 98101
p812
asVgeo_accuracy
p813
F9.5
sVneighborhoods
p814
(lp815
VDenny Triangle
p816
asVpostal_code
p817
V98101
p818
sVcountry_code
p819
VUS
p820
sVaddress
p821
(lp822
V1919 7th Ave
p823
asVcoordinate
p824
(dp825
Vlatitude
p826
F47.6145686
sVlongitude
p827
F-122.3366618
ssVstate_code
p828
VWA
p829
ssa(dp830
Vis_claimed
p831
I01
sVrating
p832
F4.5
sVmobile_url
p833
Vhttp://m.yelp.com/biz/some-random-bar-seattle
p834
sVrating_img_url
p835
Vhttp://s3-media2.fl.yelpcdn.com/assets/2/www/img/99493c12711e/ico/stars/v1/stars_4_half.png
p836
sVreview_count
p837
I192
sVname
p838
VSome Random Bar
p839
sVrating_img_url_small
p840
Vhttp://s3-media2.fl.yelpcdn.com/assets/2/www/img/a5221e66bc70/ico/stars/v1/stars_small_4_half.png
p841
sVurl
p842
Vhttp://www.yelp.com/biz/some-random-bar-seattle
p843
sVis_closed
p844
I00
sVphone
p845
V2067452185
p846
sVsnippet_text
p847
VSince switching jobs, I now find myself in Seattle about once a month. On my most recent trip, I decided to try walking around Belltown to see if there was...
p848
sVimage_url
p849
Vhttp://s3-media4.fl.yelpcdn.com/bphoto/LuVmYqc5P4fD2tfuMHsEng/ms.jpg
p850
sVcategories
p851
(lp852
(lp853
VPubs
p854
aVpubs
p855
aa(lp856
VAmerican (New)
p857
aVnewamerican
p858
aasVdisplay_phone
p859
V+1-206-745-2185
p860
sVrating_img_url_large
p861
Vhttp://s3-media4.fl.yelpcdn.com/assets/2/www/img/9f83790ff7f6/ico/stars/v1/stars_large_4_half.png
p862
sVid
p863
Vsome-random-bar-seattle
p864
sVsnippet_image_url
p865
Vhttp://s3-media2.fl.yelpcdn.com/photo/ITJv90bb-LwtIsCOY8PgXQ/ms.jpg
p866
sVlocation
p867
(dp868
Vcross_streets
p869
VCedar St & Vine St
p870
sVcity
p871
VSeattle
p872
sVdisplay_address
p873
(lp874
V2604 1st Ave
p875
aVBelltown
p876
aVSeattle, WA 98121
p877
asVgeo_accuracy
p878
F9.5
sVneighborhoods
p879
(lp880
VBelltown
p881
asVpostal_code
p882
V98121
p883
sVcountry_code
p884
VUS
p885
sVaddress
p886
(lp887
V2604 1st Ave
p888
asVcoordinate
p889
(dp890
Vlatitude
p891
F47.6152835
sVlongitude
p892
F-122.3497103
ssVstate_code
p893
VWA
p894
ssa(dp895
Vis_claimed
p896
I01
sVrating
p897
F4.5
sVmobile_url
p898
Vhttp://m.yelp.com/biz/radiator-whiskey-seattle
p899
sVrating_img_url
p900
Vhttp://s3-media2.fl.yelpcdn.com/assets/2/www/img/99493c12711e/ico/stars/v1/stars_4_half.png
p901
sVreview_count
p902
I372
sVname
p903
VRadiator Whiskey
p904
sVrating_img_url_small
p905
Vhttp://s3-media2.fl.yelpcdn.com/assets/2/www/img/a5221e66bc70/ico/stars/v1/stars_small_4_half.png
p906
sVurl
p907
Vhttp://www.yelp.com/biz/radiator-whiskey-seattle
p908
sVis_closed
p909
I00
sVid
p910
Vradiator-whiskey-seattle
p911
sVphone
p912
V2064674268
p913
sVsnippet_text
p914
VHeard this place is a must go when you are in Seattle. I tried to book in a week advance to order their Smoked Pig Head, but i guess i was lucked out =*(....
p915
sVimage_url
p916
Vhttp://s3-media1.fl.yelpcdn.com/bphoto/k0qJ6DiZQn5S29hbYthoTQ/ms.jpg
p917
sVcategories
p918
(lp919
(lp920
VAmerican (New)
p921
aVnewamerican
p922
aa(lp923
VCocktail Bars
p924
aVcocktailbars
p925
aasVdisplay_phone
p926
V+1-206-467-4268
p927
sVrating_img_url_large
p928
Vhttp://s3-media4.fl.yelpcdn.com/assets/2/www/img/9f83790ff7f6/ico/stars/v1/stars_large_4_half.png
p929
sVmenu_provider
p930
Vsingle_platform
p931
sVmenu_date_updated
p932
I1387771947
sVsnippet_image_url
p933
Vhttp://s3-media1.fl.yelpcdn.com/photo/eW2RUbi-d4--qpGWIukasQ/ms.jpg
p934
sVlocation
p935
(dp936
Vcross_streets
p937
VPost Aly & 1st Ave
p938
sVcity
p939
VSeattle
p940
sVdisplay_address
p941
(lp942
V94 Pike St
p943
aVSte 30
p944
aVDowntown
p945
aVSeattle, WA 98101
p946
asVgeo_accuracy
p947
F8.0
sVneighborhoods
p948
(lp949
VDowntown
p950
asVpostal_code
p951
V98101
p952
sVcountry_code
p953
VUS
p954
sVaddress
p955
(lp956
V94 Pike St
p957
aVSte 30
p958
asVcoordinate
p959
(dp960
Vlatitude
p961
F47.6088791
sVlongitude
p962
F-122.3403625
ssVstate_code
p963
VWA
p964
ssa(dp965
Vis_claimed
p966
I01
sVrating
p967
F4.5
sVmobile_url
p968
Vhttp://m.yelp.com/biz/ten-on-9th-seattle
p969
sVrating_img_url
p970
Vhttp://s3-media2.fl.yelpcdn.com/assets/2/www/img/99493c12711e/ico/stars/v1/stars_4_half.png
p971
sVreview_count
p972
I37
sVname
p973
VTen on 9th
p974
sVrating_img_url_small
p975
Vhttp://s3-media2.fl.yelpcdn.com/assets/2/www/img/a5221e66bc70/ico/stars/v1/stars_small_4_half.png
p976
sVurl
p977
Vhttp://www.yelp.com/biz/ten-on-9th-seattle
p978
sVis_closed
p979
I00
sVphone
p980
V2066230301
p981
sVsnippet_text
p982
VI am a little obsessed with this place. The craft cocktails are just...amazing. I'm usually a wine person, but here...here I get cocktails. Everything is...
p983
sVimage_url
p984
Vhttp://s3-media2.fl.yelpcdn.com/bphoto/aSGSGkEd38q6yiBbuLeAhA/ms.jpg
p985
sVcategories
p986
(lp987
(lp988
VCocktail Bars
p989
aVcocktailbars
p990
aa(lp991
VAmerican (New)
p992
aVnewamerican
p993
aasVdisplay_phone
p994
V+1-206-623-0301
p995
sVrating_img_url_large
p996
Vhttp://s3-media4.fl.yelpcdn.com/assets/2/www/img/9f83790ff7f6/ico/stars/v1/stars_large_4_half.png
p997
sVid
p998
Vten-on-9th-seattle
p999
sVsnippet_image_url
p1000
Vhttp://s3-media1.fl.yelpcdn.com/photo/KWfl0bQwfrwKu7HMZA2w2Q/ms.jpg
p1001
sVlocation
p1002
(dp1003
Vcross_streets
p1004
VThomas St & John St
p1005
sVcity
p1006
VSeattle
p1007
sVdisplay_address
p1008
(lp1009
V227 9th Ave N
p1010
aVSte A
p1011
aVSouth Lake Union
p1012
aVSeattle, WA 98109
p1013
asVgeo_accuracy
p1014
F8.0
sVneighborhoods
p1015
(lp1016
VSouth Lake Union
p1017
asVpostal_code
p1018
V98109
p1019
sVcountry_code
p1020
VUS
p1021
sVaddress
p1022
(lp1023
V227 9th Ave N
p1024
aVSte A
p1025
asVcoordinate
p1026
(dp1027
Vlatitude
p1028
F47.620541
sVlongitude
p1029
F-122.340149
ssVstate_code
p1030
VWA
p1031
ssa(dp1032
Vis_claimed
p1033
I00
sVrating
p1034
F4.5
sVmobile_url
p1035
Vhttp://m.yelp.com/biz/big-picture-seattle
p1036
sVrating_img_url
p1037
Vhttp://s3-media2.fl.yelpcdn.com/assets/2/www/img/99493c12711e/ico/stars/v1/stars_4_half.png
p1038
sVreview_count
p1039
I240
sVname
p1040
VBig Picture
p1041
sVrating_img_url_small
p1042
Vhttp://s3-media2.fl.yelpcdn.com/assets/2/www/img/a5221e66bc70/ico/stars/v1/stars_small_4_half.png
p1043
sVurl
p1044
Vhttp://www.yelp.com/biz/big-picture-seattle
p1045
sVis_closed
p1046
I00
sVphone
p1047
V2062560566
p1048
sVsnippet_text
p1049
VCozy, comfy theater, with new movies, cup holders for cocktails, and food service to your seat.\u000a\u000aThis place is a bit extravagant but it is also a total...
p1050
sVimage_url
p1051
Vhttp://s3-media1.fl.yelpcdn.com/bphoto/XdU7dXHqprqzg4dqSJwngA/ms.jpg
p1052
sVcategories
p1053
(lp1054
(lp1055
VCinema
p1056
aVmovietheaters
p1057
aa(lp1058
VLounges
p1059
aVlounges
p1060
aa(lp1061
VVenues & Event Spaces
p1062
aVvenues
p1063
aasVdisplay_phone
p1064
V+1-206-256-0566
p1065
sVrating_img_url_large
p1066
Vhttp://s3-media4.fl.yelpcdn.com/assets/2/www/img/9f83790ff7f6/ico/stars/v1/stars_large_4_half.png
p1067
sVid
p1068
Vbig-picture-seattle
p1069
sVsnippet_image_url
p1070
Vhttp://s3-media2.fl.yelpcdn.com/photo/aNXeysEy0xz6mAUgv9VD7Q/ms.jpg
p1071
sVlocation
p1072
(dp1073
Vcross_streets
p1074
VWall St & Vine St
p1075
sVcity
p1076
VSeattle
p1077
sVdisplay_address
p1078
(lp1079
V2505 1st Ave
p1080
aVBelltown
p1081
aVSeattle, WA 98121
p1082
asVgeo_accuracy
p1083
F8.0
sVneighborhoods
p1084
(lp1085
VBelltown
p1086
asVpostal_code
p1087
V98121
p1088
sVcountry_code
p1089
VUS
p1090
sVaddress
p1091
(lp1092
V2505 1st Ave
p1093
asVcoordinate
p1094
(dp1095
Vlatitude
p1096
F47.6147816330194
sVlongitude
p1097
F-122.349002435803
ssVstate_code
p1098
VWA
p1099
ssasba(ivenues
VenueType
p1100
(dp1101
g3
S'Nightclubs'
p1102
sg5
(lp1103
(dp1104
Vis_claimed
p1105
I01
sVrating
p1106
F5.0
sVmobile_url
p1107
Vhttp://m.yelp.com/biz/injoy-entertainment-seattle
p1108
sVrating_img_url
p1109
Vhttp://s3-media1.fl.yelpcdn.com/assets/2/www/img/f1def11e4e79/ico/stars/v1/stars_5.png
p1110
sVreview_count
p1111
I26
sVname
p1112
VInjoy Entertainment
p1113
sVrating_img_url_small
p1114
Vhttp://s3-media1.fl.yelpcdn.com/assets/2/www/img/c7623205d5cd/ico/stars/v1/stars_small_5.png
p1115
sVurl
p1116
Vhttp://www.yelp.com/biz/injoy-entertainment-seattle
p1117
sVis_closed
p1118
I00
sVphone
p1119
V2063108369
p1120
sVsnippet_text
p1121
VMy Wife and I recently got married in Seattle, WA and Injoy Entertainment did a spectacular job at our wedding.  Jason manages an outstanding business and...
p1122
sVimage_url
p1123
Vhttp://s3-media1.fl.yelpcdn.com/bphoto/1B-Drkbwcs6X11YttHIJ9g/ms.jpg
p1124
sVcategories
p1125
(lp1126
(lp1127
VDJs
p1128
aVdjs
p1129
aa(lp1130
VWedding Planning
p1131
aVwedding_planning
p1132
aa(lp1133
VParty Equipment Rentals
p1134
aVpartyequipmentrentals
p1135
aasVdisplay_phone
p1136
V+1-206-310-8369
p1137
sVrating_img_url_large
p1138
Vhttp://s3-media3.fl.yelpcdn.com/assets/2/www/img/22affc4e6c38/ico/stars/v1/stars_large_5.png
p1139
sVid
p1140
Vinjoy-entertainment-seattle
p1141
sVsnippet_image_url
p1142
Vhttp://s3-media4.fl.yelpcdn.com/assets/srv0/yelp_styleguide/cc4afe21892e/assets/img/default_avatars/user_medium_square.png
p1143
sVlocation
p1144
(dp1145
Vcross_streets
p1146
V24th St & Mercer Way
p1147
sVcity
p1148
VSeattle
p1149
sVdisplay_address
p1150
(lp1151
V2500 81st Ave SE
p1152
aVSte 312
p1153
aVSeattle, WA 98040
p1154
asVgeo_accuracy
p1155
F8.0
sVpostal_code
p1156
V98040
p1157
sVcountry_code
p1158
VUS
p1159
sVaddress
p1160
(lp1161
V2500 81st Ave SE
p1162
aVSte 312
p1163
asVcoordinate
p1164
(dp1165
Vlatitude
p1166
F47.588303
sVlongitude
p1167
F-122.230003
ssVstate_code
p1168
VWA
p1169
ssa(dp1170
Vis_claimed
p1171
I01
sVrating
p1172
F5.0
sVmobile_url
p1173
Vhttp://m.yelp.com/biz/crimson-haze-event-lighting-seattle
p1174
sVrating_img_url
p1175
Vhttp://s3-media1.fl.yelpcdn.com/assets/2/www/img/f1def11e4e79/ico/stars/v1/stars_5.png
p1176
sVreview_count
p1177
I11
sVname
p1178
VCrimson Haze Event Lighting
p1179
sVrating_img_url_small
p1180
Vhttp://s3-media1.fl.yelpcdn.com/assets/2/www/img/c7623205d5cd/ico/stars/v1/stars_small_5.png
p1181
sVurl
p1182
Vhttp://www.yelp.com/biz/crimson-haze-event-lighting-seattle
p1183
sVis_closed
p1184
I00
sVphone
p1185
V4259545451
p1186
sVsnippet_text
p1187
VCrimson Haze did the lighting at my wedding reception in Fred Wildlife Refuge, and it was DOPE! Bright enough for the old folks to get around, dim enough...
p1188
sVimage_url
p1189
Vhttp://s3-media3.fl.yelpcdn.com/bphoto/_O51ODUd22PhLS_-TM7H2A/ms.jpg
p1190
sVcategories
p1191
(lp1192
(lp1193
VParty & Event Planning
p1194
aVeventplanning
p1195
aa(lp1196
VLighting Fixtures & Equipment
p1197
aVlighting
p1198
aa(lp1199
VParty Equipment Rentals
p1200
aVpartyequipmentrentals
p1201
aasVdisplay_phone
p1202
V+1-425-954-5451
p1203
sVrating_img_url_large
p1204
Vhttp://s3-media3.fl.yelpcdn.com/assets/2/www/img/22affc4e6c38/ico/stars/v1/stars_large_5.png
p1205
sVid
p1206
Vcrimson-haze-event-lighting-seattle
p1207
sVsnippet_image_url
p1208
Vhttp://s3-media4.fl.yelpcdn.com/photo/qO_C1oSNOF-4jflJ4J3dHg/ms.jpg
p1209
sVlocation
p1210
(dp1211
Vcross_streets
p1212
V38th St & N Fremont Way
p1213
sVcity
p1214
VSeattle
p1215
sVdisplay_address
p1216
(lp1217
V3614 Linden Ave N
p1218
aVSte 214
p1219
aVFremont
p1220
aVSeattle, WA 98103
p1221
asVgeo_accuracy
p1222
F8.0
sVneighborhoods
p1223
(lp1224
VFremont
p1225
asVpostal_code
p1226
V98103
p1227
sVcountry_code
p1228
VUS
p1229
sVaddress
p1230
(lp1231
V3614 Linden Ave N
p1232
aVSte 214
p1233
asVcoordinate
p1234
(dp1235
Vlatitude
p1236
F47.6514876633883
sVlongitude
p1237
F-122.348565906286
ssVstate_code
p1238
VWA
p1239
ssa(dp1240
Vis_claimed
p1241
I01
sVrating
p1242
F5.0
sVmobile_url
p1243
Vhttp://m.yelp.com/biz/wasound-seattle
p1244
sVrating_img_url
p1245
Vhttp://s3-media1.fl.yelpcdn.com/assets/2/www/img/f1def11e4e79/ico/stars/v1/stars_5.png
p1246
sVreview_count
p1247
I8
sVname
p1248
VwaSOUND
p1249
sVrating_img_url_small
p1250
Vhttp://s3-media1.fl.yelpcdn.com/assets/2/www/img/c7623205d5cd/ico/stars/v1/stars_small_5.png
p1251
sVurl
p1252
Vhttp://www.yelp.com/biz/wasound-seattle
p1253
sVis_closed
p1254
I00
sVphone
p1255
V4257535885
p1256
sVsnippet_text
p1257
VAWESOME!!!\u000a\u000aI hired Danny to DJ my New Year's Eve wedding. The music and the dance party portion of our event were very important to us, but we also wanted...
p1258
sVimage_url
p1259
Vhttp://s3-media2.fl.yelpcdn.com/bphoto/pfihY1TvJkU5hMcwXmREqg/ms.jpg
p1260
sVcategories
p1261
(lp1262
(lp1263
VDJs
p1264
aVdjs
p1265
aasVdisplay_phone
p1266
V+1-425-753-5885
p1267
sVrating_img_url_large
p1268
Vhttp://s3-media3.fl.yelpcdn.com/assets/2/www/img/22affc4e6c38/ico/stars/v1/stars_large_5.png
p1269
sVid
p1270
Vwasound-seattle
p1271
sVsnippet_image_url
p1272
Vhttp://s3-media1.fl.yelpcdn.com/photo/n3Qt3vwtqoZOaBajts6gzQ/ms.jpg
p1273
sVlocation
p1274
(dp1275
Vcity
p1276
VSeattle
p1277
sVdisplay_address
p1278
(lp1279
VDowntown
p1280
aVSeattle, WA 98101
p1281
asVgeo_accuracy
p1282
F5.0
sVneighborhoods
p1283
(lp1284
VDowntown
p1285
asVpostal_code
p1286
V98101
p1287
sVcountry_code
p1288
VUS
p1289
sVaddress
p1290
(lp1291
sVcoordinate
p1292
(dp1293
Vlatitude
p1294
F47.6110076904297
sVlongitude
p1295
F-122.333518981934
ssVstate_code
p1296
VWA
p1297
ssa(dp1298
Vis_claimed
p1299
I00
sVrating
p1300
F4.5
sVmobile_url
p1301
Vhttp://m.yelp.com/biz/emerald-city-soul-club-seattle
p1302
sVrating_img_url
p1303
Vhttp://s3-media2.fl.yelpcdn.com/assets/2/www/img/99493c12711e/ico/stars/v1/stars_4_half.png
p1304
sVreview_count
p1305
I19
sVname
p1306
VEmerald City Soul Club
p1307
sVrating_img_url_small
p1308
Vhttp://s3-media2.fl.yelpcdn.com/assets/2/www/img/a5221e66bc70/ico/stars/v1/stars_small_4_half.png
p1309
sVurl
p1310
Vhttp://www.yelp.com/biz/emerald-city-soul-club-seattle
p1311
sVis_closed
p1312
I00
sVsnippet_text
p1313
VI went a couple years ago and had a blast! Soul night was soo much fun :)\u000a\u000aIt's hard to determine if they still do soul night every second sat. of the month...
p1314
sVimage_url
p1315
Vhttp://s3-media1.fl.yelpcdn.com/bphoto/8d8CDIjwNf0htTWPhs9Huw/ms.jpg
p1316
sVcategories
p1317
(lp1318
(lp1319
VDance Clubs
p1320
aVdanceclubs
p1321
aasVrating_img_url_large
p1322
Vhttp://s3-media4.fl.yelpcdn.com/assets/2/www/img/9f83790ff7f6/ico/stars/v1/stars_large_4_half.png
p1323
sVid
p1324
Vemerald-city-soul-club-seattle
p1325
sVsnippet_image_url
p1326
Vhttp://s3-media1.fl.yelpcdn.com/photo/FLJ86WQ73cJYl56OLgHEcA/ms.jpg
p1327
sVlocation
p1328
(dp1329
Vcity
p1330
VSeattle
p1331
sVdisplay_address
p1332
(lp1333
VFirst Hill
p1334
aVSeattle, WA 98127
p1335
asVgeo_accuracy
p1336
F9.5
sVneighborhoods
p1337
(lp1338
VFirst Hill
p1339
asVpostal_code
p1340
V98127
p1341
sVcountry_code
p1342
VUS
p1343
sVaddress
p1344
(lp1345
sVcoordinate
p1346
(dp1347
Vlatitude
p1348
F47.6100018082742
sVlongitude
p1349
F-122.329997317791
ssVstate_code
p1350
VWA
p1351
ssa(dp1352
Vis_claimed
p1353
I01
sVrating
p1354
F4.0
sVmobile_url
p1355
Vhttp://m.yelp.com/biz/el-gaucho-seattle
p1356
sVrating_img_url
p1357
Vhttp://s3-media4.fl.yelpcdn.com/assets/2/www/img/c2f3dd9799a5/ico/stars/v1/stars_4.png
p1358
sVreview_count
p1359
I685
sVname
p1360
VEl Gaucho
p1361
sVrating_img_url_small
p1362
Vhttp://s3-media4.fl.yelpcdn.com/assets/2/www/img/f62a5be2f902/ico/stars/v1/stars_small_4.png
p1363
sVurl
p1364
Vhttp://www.yelp.com/biz/el-gaucho-seattle
p1365
sVis_closed
p1366
I00
sVid
p1367
Vel-gaucho-seattle
p1368
sVphone
p1369
V2067281337
p1370
sVsnippet_text
p1371
VI took my boyfriend to El Gaucho for his birthday and really enjoyed the experience we had. I loved the look and feel right away from the dark lighting to...
p1372
sVimage_url
p1373
Vhttp://s3-media2.fl.yelpcdn.com/bphoto/CdcWza8Na8wYoMbbt6fjAw/ms.jpg
p1374
sVcategories
p1375
(lp1376
(lp1377
VSteakhouses
p1378
aVsteak
p1379
aa(lp1380
VSeafood
p1381
aVseafood
p1382
aa(lp1383
VVenues & Event Spaces
p1384
aVvenues
p1385
aasVdisplay_phone
p1386
V+1-206-728-1337
p1387
sVrating_img_url_large
p1388
Vhttp://s3-media2.fl.yelpcdn.com/assets/2/www/img/ccf2b76faa2c/ico/stars/v1/stars_large_4.png
p1389
sVmenu_provider
p1390
Vsingle_platform
p1391
sVmenu_date_updated
p1392
I1415615183
sVsnippet_image_url
p1393
Vhttp://s3-media4.fl.yelpcdn.com/photo/aDr0IKvHJz93fbsG8HviXA/ms.jpg
p1394
sVlocation
p1395
(dp1396
Vcross_streets
p1397
VWall St & Vine St
p1398
sVcity
p1399
VSeattle
p1400
sVdisplay_address
p1401
(lp1402
V2505 1st Ave
p1403
aVBelltown
p1404
aVSeattle, WA 98121
p1405
asVgeo_accuracy
p1406
F8.0
sVneighborhoods
p1407
(lp1408
VBelltown
p1409
asVpostal_code
p1410
V98121
p1411
sVcountry_code
p1412
VUS
p1413
sVaddress
p1414
(lp1415
V2505 1st Ave
p1416
asVcoordinate
p1417
(dp1418
Vlatitude
p1419
F47.6146812
sVlongitude
p1420
F-122.3492203
ssVstate_code
p1421
VWA
p1422
ssasba(ivenues
VenueType
p1423
(dp1424
g3
S'Gyms'
p1425
sg5
(lp1426
(dp1427
Vis_claimed
p1428
I01
sVrating
p1429
F5.0
sVmobile_url
p1430
Vhttp://m.yelp.com/biz/ianfitness-seattle
p1431
sVrating_img_url
p1432
Vhttp://s3-media1.fl.yelpcdn.com/assets/2/www/img/f1def11e4e79/ico/stars/v1/stars_5.png
p1433
sVreview_count
p1434
I44
sVname
p1435
VIanFitness
p1436
sVrating_img_url_small
p1437
Vhttp://s3-media1.fl.yelpcdn.com/assets/2/www/img/c7623205d5cd/ico/stars/v1/stars_small_5.png
p1438
sVurl
p1439
Vhttp://www.yelp.com/biz/ianfitness-seattle
p1440
sVis_closed
p1441
I00
sVid
p1442
Vianfitness-seattle
p1443
sVdeals
p1444
(lp1445
(dp1446
Vis_popular
p1447
I01
sVwhat_you_get
p1448
VYou get a voucher redeemable for $45 at IanFitness.\u000aPrint out your voucher, or redeem on your phone with the <a href="http://www.yelp.com/yelpmobile">Yelp app</a>.
p1449
sVtime_start
p1450
I1371586714
sVtitle
p1451
V$20 for $45
p1452
sVurl
p1453
Vhttp://www.yelp.com/deals/ianfitness-seattle
p1454
sVadditional_restrictions
p1455
VPromotion lasts for 1 year from date of purchase. After that period, your voucher is redeemable for the amount you paid, less any value you may have received. Not valid with other vouchers, certificates, or offers. All equipment provided. Only 1 voucher(s) can be purchased and redeemed per person. Up to 3 can be purchased as gifts for others. Must make appointment at least 24 hours in advance. Tax included. Subject to the <a target="_blank" href="http://www.yelp.com/tos/general_b2c_us_20120911">General Terms</a>.
p1456
sVid
p1457
VXcByZZeJgAi0iIYFWakv9g
p1458
sVimportant_restrictions
p1459
VNew customers only.
p1460
sVimage_url
p1461
Vhttp://s3-media2.fl.yelpcdn.com/dphoto/jU4yGPB1rU10KjQFtdojxQ/m.jpg
p1462
sVoptions
p1463
(lp1464
(dp1465
Voriginal_price
p1466
I4500
sVtitle
p1467
V$20 for $45
p1468
sVprice
p1469
I2000
sVpurchase_url
p1470
Vhttps://www.yelp.com/checkout/deal/o17c7gGTBc_-7DAqHFSf4g
p1471
sVformatted_original_price
p1472
V$45
p1473
sVformatted_price
p1474
V$20
p1475
sVis_quantity_limited
p1476
I00
sasVcurrency_code
p1477
VUSD
p1478
sasVphone
p1479
V2063490242
p1480
sVsnippet_text
p1481
VI was a competitive athlete for 15 years but fell out of a consistent workout routine after college.  I was introduced to Ian's 45-minute bootcamp classes...
p1482
sVimage_url
p1483
Vhttp://s3-media3.fl.yelpcdn.com/bphoto/sPqioRDQNHk3vFzgr9yxcw/ms.jpg
p1484
sVcategories
p1485
(lp1486
(lp1487
VTrainers
p1488
aVhealthtrainers
p1489
aa(lp1490
VBoot Camps
p1491
aVbootcamps
p1492
aa(lp1493
VGyms
p1494
aVgyms
p1495
aasVdisplay_phone
p1496
V+1-206-349-0242
p1497
sVrating_img_url_large
p1498
Vhttp://s3-media3.fl.yelpcdn.com/assets/2/www/img/22affc4e6c38/ico/stars/v1/stars_large_5.png
p1499
sVmenu_provider
p1500
Vsingle_platform
p1501
sVmenu_date_updated
p1502
I1404103892
sVsnippet_image_url
p1503
Vhttp://s3-media3.fl.yelpcdn.com/photo/mGq8kz1e-NG8SpANHfKpNw/ms.jpg
p1504
sVlocation
p1505
(dp1506
Vcross_streets
p1507
VDravus St & N Warren Ave
p1508
sVcity
p1509
VSeattle
p1510
sVdisplay_address
p1511
(lp1512
V101 Nickerson St
p1513
aVQueen Anne
p1514
aVSeattle, WA 98109
p1515
asVgeo_accuracy
p1516
F8.0
sVneighborhoods
p1517
(lp1518
VQueen Anne
p1519
asVpostal_code
p1520
V98109
p1521
sVcountry_code
p1522
VUS
p1523
sVaddress
p1524
(lp1525
V101 Nickerson St
p1526
asVcoordinate
p1527
(dp1528
Vlatitude
p1529
F47.648368
sVlongitude
p1530
F-122.355262
ssVstate_code
p1531
VWA
p1532
ssa(dp1533
Vis_claimed
p1534
I01
sVrating
p1535
F5.0
sVmobile_url
p1536
Vhttp://m.yelp.com/biz/shogun-fitness-seattle
p1537
sVrating_img_url
p1538
Vhttp://s3-media1.fl.yelpcdn.com/assets/2/www/img/f1def11e4e79/ico/stars/v1/stars_5.png
p1539
sVreview_count
p1540
I24
sVname
p1541
VShogun Fitness
p1542
sVrating_img_url_small
p1543
Vhttp://s3-media1.fl.yelpcdn.com/assets/2/www/img/c7623205d5cd/ico/stars/v1/stars_small_5.png
p1544
sVurl
p1545
Vhttp://www.yelp.com/biz/shogun-fitness-seattle
p1546
sVis_closed
p1547
I00
sVphone
p1548
V2068345056
p1549
sVsnippet_text
p1550
VTHIS GUY IS GREAT! \u000a\u000aJef will get you so EXCITED  about what your doing because he honestly cares about you and making your life AMAZING!\u000a\u000aFirst of all I...
p1551
sVimage_url
p1552
Vhttp://s3-media3.fl.yelpcdn.com/bphoto/qvQKrVBRhQbS3Qk45TPQCA/ms.jpg
p1553
sVcategories
p1554
(lp1555
(lp1556
VTrainers
p1557
aVhealthtrainers
p1558
aasVdisplay_phone
p1559
V+1-206-834-5056
p1560
sVrating_img_url_large
p1561
Vhttp://s3-media3.fl.yelpcdn.com/assets/2/www/img/22affc4e6c38/ico/stars/v1/stars_large_5.png
p1562
sVid
p1563
Vshogun-fitness-seattle
p1564
sVsnippet_image_url
p1565
Vhttp://s3-media2.fl.yelpcdn.com/photo/1hmN3QczBwZ_elT92pwY1A/ms.jpg
p1566
sVlocation
p1567
(dp1568
Vcross_streets
p1569
VCrockett St
p1570
sVcity
p1571
VSeattle
p1572
sVdisplay_address
p1573
(lp1574
V2040 Westlake Ave N
p1575
aVWestlake
p1576
aVSeattle, WA 98109
p1577
asVgeo_accuracy
p1578
F8.0
sVneighborhoods
p1579
(lp1580
VWestlake
p1581
asVpostal_code
p1582
V98109
p1583
sVcountry_code
p1584
VUS
p1585
sVaddress
p1586
(lp1587
V2040 Westlake Ave N
p1588
asVcoordinate
p1589
(dp1590
Vlatitude
p1591
F47.637383
sVlongitude
p1592
F-122.339661
ssVstate_code
p1593
VWA
p1594
ssa(dp1595
Vis_claimed
p1596
I01
sVrating
p1597
F5.0
sVmobile_url
p1598
Vhttp://m.yelp.com/biz/sync-fitness-seattle
p1599
sVrating_img_url
p1600
Vhttp://s3-media1.fl.yelpcdn.com/assets/2/www/img/f1def11e4e79/ico/stars/v1/stars_5.png
p1601
sVreview_count
p1602
I21
sVname
p1603
VSync Fitness
p1604
sVrating_img_url_small
p1605
Vhttp://s3-media1.fl.yelpcdn.com/assets/2/www/img/c7623205d5cd/ico/stars/v1/stars_small_5.png
p1606
sVurl
p1607
Vhttp://www.yelp.com/biz/sync-fitness-seattle
p1608
sVis_closed
p1609
I00
sVphone
p1610
V2063547480
p1611
sVsnippet_text
p1612
VI was afraid to go to the gym or work out with a trainer before I visited Sync with a friend. I was blown away by the camaraderie, the encouragement, and...
p1613
sVimage_url
p1614
Vhttp://s3-media2.fl.yelpcdn.com/bphoto/pzxmvvr6bGDVx40zl_MyEw/ms.jpg
p1615
sVcategories
p1616
(lp1617
(lp1618
VTrainers
p1619
aVhealthtrainers
p1620
aa(lp1621
VBoot Camps
p1622
aVbootcamps
p1623
aasVdisplay_phone
p1624
V+1-206-354-7480
p1625
sVrating_img_url_large
p1626
Vhttp://s3-media3.fl.yelpcdn.com/assets/2/www/img/22affc4e6c38/ico/stars/v1/stars_large_5.png
p1627
sVid
p1628
Vsync-fitness-seattle
p1629
sVsnippet_image_url
p1630
Vhttp://s3-media2.fl.yelpcdn.com/photo/W3FniUAx4zkzoOp_kz-OvQ/ms.jpg
p1631
sVlocation
p1632
(dp1633
Vcross_streets
p1634
VW 15th Ave
p1635
sVcity
p1636
VSeattle
p1637
sVdisplay_address
p1638
(lp1639
V1550 W Armory Way
p1640
aVInterbay
p1641
aVSeattle, WA 98119
p1642
asVgeo_accuracy
p1643
F9.5
sVneighborhoods
p1644
(lp1645
VInterbay
p1646
asVpostal_code
p1647
V98119
p1648
sVcountry_code
p1649
VUS
p1650
sVaddress
p1651
(lp1652
V1550 W Armory Way
p1653
asVcoordinate
p1654
(dp1655
Vlatitude
p1656
F47.638404
sVlongitude
p1657
F-122.377472
ssVstate_code
p1658
VWA
p1659
ssa(dp1660
Vis_claimed
p1661
I01
sVrating
p1662
F4.5
sVmobile_url
p1663
Vhttp://m.yelp.com/biz/crossfit-belltown-seattle
p1664
sVrating_img_url
p1665
Vhttp://s3-media2.fl.yelpcdn.com/assets/2/www/img/99493c12711e/ico/stars/v1/stars_4_half.png
p1666
sVreview_count
p1667
I23
sVname
p1668
VCrossFit Belltown
p1669
sVrating_img_url_small
p1670
Vhttp://s3-media2.fl.yelpcdn.com/assets/2/www/img/a5221e66bc70/ico/stars/v1/stars_small_4_half.png
p1671
sVurl
p1672
Vhttp://www.yelp.com/biz/crossfit-belltown-seattle
p1673
sVis_closed
p1674
I00
sVphone
p1675
V2064206314
p1676
sVsnippet_text
p1677
VCrossFit Belltown will change your life. I can attest to this, because it has changed mine in so many ways. I am lucky to have found a place like...
p1678
sVimage_url
p1679
Vhttp://s3-media4.fl.yelpcdn.com/bphoto/mqxldljVr8_2juesymxXpA/ms.jpg
p1680
sVcategories
p1681
(lp1682
(lp1683
VGyms
p1684
aVgyms
p1685
aa(lp1686
VTrainers
p1687
aVhealthtrainers
p1688
aasVdisplay_phone
p1689
V+1-206-420-6314
p1690
sVrating_img_url_large
p1691
Vhttp://s3-media4.fl.yelpcdn.com/assets/2/www/img/9f83790ff7f6/ico/stars/v1/stars_large_4_half.png
p1692
sVid
p1693
Vcrossfit-belltown-seattle
p1694
sVsnippet_image_url
p1695
Vhttp://s3-media1.fl.yelpcdn.com/photo/ctsqcWLSE9DRjkzLT3VbIA/ms.jpg
p1696
sVlocation
p1697
(dp1698
Vcross_streets
p1699
VBay St & Eagle St
p1700
sVcity
p1701
VSeattle
p1702
sVdisplay_address
p1703
(lp1704
V3025 1st Ave
p1705
aVBelltown
p1706
aVSeattle, WA 98121
p1707
asVgeo_accuracy
p1708
F8.0
sVneighborhoods
p1709
(lp1710
VBelltown
p1711
asVpostal_code
p1712
V98121
p1713
sVcountry_code
p1714
VUS
p1715
sVaddress
p1716
(lp1717
V3025 1st Ave
p1718
asVcoordinate
p1719
(dp1720
Vlatitude
p1721
F47.618095
sVlongitude
p1722
F-122.35511
ssVstate_code
p1723
VWA
p1724
ssa(dp1725
Vis_claimed
p1726
I01
sVrating
p1727
F4.5
sVmobile_url
p1728
Vhttp://m.yelp.com/biz/anytime-fitness-seattle
p1729
sVrating_img_url
p1730
Vhttp://s3-media2.fl.yelpcdn.com/assets/2/www/img/99493c12711e/ico/stars/v1/stars_4_half.png
p1731
sVreview_count
p1732
I84
sVname
p1733
VAnytime Fitness
p1734
sVrating_img_url_small
p1735
Vhttp://s3-media2.fl.yelpcdn.com/assets/2/www/img/a5221e66bc70/ico/stars/v1/stars_small_4_half.png
p1736
sVurl
p1737
Vhttp://www.yelp.com/biz/anytime-fitness-seattle
p1738
sVis_closed
p1739
I00
sVphone
p1740
V2065454348
p1741
sVsnippet_text
p1742
VI can't express how much I MISS this gym. Every time I see it, its like walking away from a bad regret in life. Since then I've hopped to two other gyms...
p1743
sVimage_url
p1744
Vhttp://s3-media1.fl.yelpcdn.com/bphoto/zndMmTGBbA0lTnPmt9_5ww/ms.jpg
p1745
sVcategories
p1746
(lp1747
(lp1748
VGyms
p1749
aVgyms
p1750
aa(lp1751
VTrainers
p1752
aVhealthtrainers
p1753
aasVdisplay_phone
p1754
V+1-206-545-4348
p1755
sVrating_img_url_large
p1756
Vhttp://s3-media4.fl.yelpcdn.com/assets/2/www/img/9f83790ff7f6/ico/stars/v1/stars_large_4_half.png
p1757
sVid
p1758
Vanytime-fitness-seattle
p1759
sVsnippet_image_url
p1760
Vhttp://s3-media4.fl.yelpcdn.com/photo/eOt7baX60wKZ7IGs8aDXiw/ms.jpg
p1761
sVlocation
p1762
(dp1763
Vcross_streets
p1764
VN Aurora Ave & N Fremont Ave
p1765
sVcity
p1766
VSeattle
p1767
sVdisplay_address
p1768
(lp1769
V837 North 34th Street
p1770
aVSuite 220
p1771
aVFremont
p1772
aVSeattle, WA 98103
p1773
asVgeo_accuracy
p1774
F8.0
sVneighborhoods
p1775
(lp1776
VFremont
p1777
asVpostal_code
p1778
V98103
p1779
sVcountry_code
p1780
VUS
p1781
sVaddress
p1782
(lp1783
V837 North 34th Street
p1784
aVSuite 220
p1785
asVcoordinate
p1786
(dp1787
Vlatitude
p1788
F47.6489601
sVlongitude
p1789
F-122.3480377
ssVstate_code
p1790
VWA
p1791
ssasba(ivenues
VenueType
p1792
(dp1793
g3
S'Parks'
p1794
sg5
(lp1795
(dp1796
Vis_claimed
p1797
I01
sVrating
p1798
F5.0
sVmobile_url
p1799
Vhttp://m.yelp.com/biz/seattle-free-walking-tours-seattle
p1800
sVrating_img_url
p1801
Vhttp://s3-media1.fl.yelpcdn.com/assets/2/www/img/f1def11e4e79/ico/stars/v1/stars_5.png
p1802
sVreview_count
p1803
I68
sVname
p1804
VSeattle Free Walking Tours
p1805
sVrating_img_url_small
p1806
Vhttp://s3-media1.fl.yelpcdn.com/assets/2/www/img/c7623205d5cd/ico/stars/v1/stars_small_5.png
p1807
sVurl
p1808
Vhttp://www.yelp.com/biz/seattle-free-walking-tours-seattle
p1809
sVis_closed
p1810
I00
sVphone
p1811
V3602015611
p1812
sVsnippet_text
p1813
VWe did both tours with Jake when we were in Seattle, and both tours were absolutely amazing.  The Seattle 101 tour was a little over 2 hours long and we...
p1814
sVimage_url
p1815
Vhttp://s3-media4.fl.yelpcdn.com/bphoto/_A2O7ndIvUX6jlrfgdlI2w/ms.jpg
p1816
sVcategories
p1817
(lp1818
(lp1819
VWalking Tours
p1820
aVwalkingtours
p1821
aasVdisplay_phone
p1822
V+1-360-201-5611
p1823
sVrating_img_url_large
p1824
Vhttp://s3-media3.fl.yelpcdn.com/assets/2/www/img/22affc4e6c38/ico/stars/v1/stars_large_5.png
p1825
sVid
p1826
Vseattle-free-walking-tours-seattle
p1827
sVsnippet_image_url
p1828
Vhttp://s3-media4.fl.yelpcdn.com/photo/NNXJ9ZAxca9ulkW1yAPu6w/ms.jpg
p1829
sVlocation
p1830
(dp1831
Vcity
p1832
VSeattle
p1833
sVdisplay_address
p1834
(lp1835
V2000 Western Ave
p1836
aVDowntown
p1837
aVSeattle, WA 98101
p1838
asVgeo_accuracy
p1839
F8.0
sVneighborhoods
p1840
(lp1841
VDowntown
p1842
asVpostal_code
p1843
V98101
p1844
sVcountry_code
p1845
VUS
p1846
sVaddress
p1847
(lp1848
V2000 Western Ave
p1849
asVcoordinate
p1850
(dp1851
Vlatitude
p1852
F47.6104840636253
sVlongitude
p1853
F-122.343709766865
ssVstate_code
p1854
VWA
p1855
ssa(dp1856
Vis_claimed
p1857
I00
sVrating
p1858
F5.0
sVmobile_url
p1859
Vhttp://m.yelp.com/biz/ella-bailey-park-seattle
p1860
sVrating_img_url
p1861
Vhttp://s3-media1.fl.yelpcdn.com/assets/2/www/img/f1def11e4e79/ico/stars/v1/stars_5.png
p1862
sVreview_count
p1863
I20
sVname
p1864
VElla Bailey Park
p1865
sVrating_img_url_small
p1866
Vhttp://s3-media1.fl.yelpcdn.com/assets/2/www/img/c7623205d5cd/ico/stars/v1/stars_small_5.png
p1867
sVurl
p1868
Vhttp://www.yelp.com/biz/ella-bailey-park-seattle
p1869
sVis_closed
p1870
I00
sVphone
p1871
V2066849286
p1872
sVsnippet_text
p1873
VThis park not only offers a fantastic view of downtown Seattle and Mount Rainer but also has a great playground for the kids, a small walking track (also...
p1874
sVimage_url
p1875
Vhttp://s3-media2.fl.yelpcdn.com/bphoto/pefxZS-3Hmx1cYGCd6jCkw/ms.jpg
p1876
sVcategories
p1877
(lp1878
(lp1879
VParks
p1880
aVparks
p1881
aa(lp1882
VPlaygrounds
p1883
aVplaygrounds
p1884
aasVdisplay_phone
p1885
V+1-206-684-9286
p1886
sVrating_img_url_large
p1887
Vhttp://s3-media3.fl.yelpcdn.com/assets/2/www/img/22affc4e6c38/ico/stars/v1/stars_large_5.png
p1888
sVid
p1889
Vella-bailey-park-seattle
p1890
sVsnippet_image_url
p1891
Vhttp://s3-media2.fl.yelpcdn.com/photo/W3FniUAx4zkzoOp_kz-OvQ/ms.jpg
p1892
sVlocation
p1893
(dp1894
Vcity
p1895
VSeattle
p1896
sVdisplay_address
p1897
(lp1898
V2601 W Smith St
p1899
aVMagnolia
p1900
aVSeattle, WA 98134
p1901
asVgeo_accuracy
p1902
F8.0
sVneighborhoods
p1903
(lp1904
VMagnolia
p1905
asVpostal_code
p1906
V98134
p1907
sVcountry_code
p1908
VUS
p1909
sVaddress
p1910
(lp1911
V2601 W Smith St
p1912
asVcoordinate
p1913
(dp1914
Vlatitude
p1915
F47.6411249488592
sVlongitude
p1916
F-122.390803992748
ssVstate_code
p1917
VWA
p1918
ssa(dp1919
Vis_claimed
p1920
I00
sVrating
p1921
F4.5
sVmobile_url
p1922
Vhttp://m.yelp.com/biz/kerry-park-seattle
p1923
sVrating_img_url
p1924
Vhttp://s3-media2.fl.yelpcdn.com/assets/2/www/img/99493c12711e/ico/stars/v1/stars_4_half.png
p1925
sVreview_count
p1926
I487
sVname
p1927
VKerry Park
p1928
sVrating_img_url_small
p1929
Vhttp://s3-media2.fl.yelpcdn.com/assets/2/www/img/a5221e66bc70/ico/stars/v1/stars_small_4_half.png
p1930
sVurl
p1931
Vhttp://www.yelp.com/biz/kerry-park-seattle
p1932
sVis_closed
p1933
I00
sVphone
p1934
V2066844075
p1935
sVsnippet_text
p1936
VBeautiful, romantical, inspiring. Classic Seattle. What else is there to say?  \u000a\u000aBreathtaking views of Seattle and the Sound day or night. It's a great spot...
p1937
sVimage_url
p1938
Vhttp://s3-media2.fl.yelpcdn.com/bphoto/sj2Y2Ix32n-f4yMwFaB3tw/ms.jpg
p1939
sVcategories
p1940
(lp1941
(lp1942
VParks
p1943
aVparks
p1944
aa(lp1945
VPlaygrounds
p1946
aVplaygrounds
p1947
aasVdisplay_phone
p1948
V+1-206-684-4075
p1949
sVrating_img_url_large
p1950
Vhttp://s3-media4.fl.yelpcdn.com/assets/2/www/img/9f83790ff7f6/ico/stars/v1/stars_large_4_half.png
p1951
sVid
p1952
Vkerry-park-seattle
p1953
sVsnippet_image_url
p1954
Vhttp://s3-media4.fl.yelpcdn.com/photo/MSb0nJxJkZKSjBQSlBbdyw/ms.jpg
p1955
sVlocation
p1956
(dp1957
Vcity
p1958
VSeattle
p1959
sVdisplay_address
p1960
(lp1961
V211 W Highland Dr
p1962
aVLower Queen Anne
p1963
aVSeattle, WA 98127
p1964
asVgeo_accuracy
p1965
F8.0
sVneighborhoods
p1966
(lp1967
VLower Queen Anne
p1968
asVpostal_code
p1969
V98127
p1970
sVcountry_code
p1971
VUS
p1972
sVaddress
p1973
(lp1974
V211 W Highland Dr
p1975
asVcoordinate
p1976
(dp1977
Vlatitude
p1978
F47.6295290887356
sVlongitude
p1979
F-122.359552904963
ssVstate_code
p1980
VWA
p1981
ssa(dp1982
Vis_claimed
p1983
I00
sVrating
p1984
F4.5
sVmobile_url
p1985
Vhttp://m.yelp.com/biz/bhy-kracke-park-seattle
p1986
sVrating_img_url
p1987
Vhttp://s3-media2.fl.yelpcdn.com/assets/2/www/img/99493c12711e/ico/stars/v1/stars_4_half.png
p1988
sVreview_count
p1989
I41
sVname
p1990
VBhy Kracke Park
p1991
sVrating_img_url_small
p1992
Vhttp://s3-media2.fl.yelpcdn.com/assets/2/www/img/a5221e66bc70/ico/stars/v1/stars_small_4_half.png
p1993
sVurl
p1994
Vhttp://www.yelp.com/biz/bhy-kracke-park-seattle
p1995
sVis_closed
p1996
I00
sVphone
p1997
V2066844075
p1998
sVsnippet_text
p1999
VIf you've been to Kerry Park in Seattle and you like to take photos of Seattle Skyline, go to this park. It's a bit tricky to get here as the road is a dead...
p2000
sVimage_url
p2001
Vhttp://s3-media4.fl.yelpcdn.com/bphoto/1Ji7ZoPIMIi-6E9JC5mlZA/ms.jpg
p2002
sVcategories
p2003
(lp2004
(lp2005
VParks
p2006
aVparks
p2007
aasVdisplay_phone
p2008
V+1-206-684-4075
p2009
sVrating_img_url_large
p2010
Vhttp://s3-media4.fl.yelpcdn.com/assets/2/www/img/9f83790ff7f6/ico/stars/v1/stars_large_4_half.png
p2011
sVid
p2012
Vbhy-kracke-park-seattle
p2013
sVsnippet_image_url
p2014
Vhttp://s3-media2.fl.yelpcdn.com/photo/WuDpvDTk8XTZiuvoXVcyLQ/ms.jpg
p2015
sVlocation
p2016
(dp2017
Vcross_streets
p2018
VHighland Dr
p2019
sVcity
p2020
VSeattle
p2021
sVdisplay_address
p2022
(lp2023
V1215 5th Ave N
p2024
aVQueen Anne
p2025
aVSeattle, WA 98109
p2026
asVgeo_accuracy
p2027
F8.0
sVneighborhoods
p2028
(lp2029
VQueen Anne
p2030
asVpostal_code
p2031
V98109
p2032
sVcountry_code
p2033
VUS
p2034
sVaddress
p2035
(lp2036
V1215 5th Ave N
p2037
asVcoordinate
p2038
(dp2039
Vlatitude
p2040
F47.6301024109125
sVlongitude
p2041
F-122.347630485892
ssVstate_code
p2042
VWA
p2043
ssa(dp2044
Vis_claimed
p2045
I00
sVrating
p2046
F4.5
sVmobile_url
p2047
Vhttp://m.yelp.com/biz/volunteer-park-seattle
p2048
sVrating_img_url
p2049
Vhttp://s3-media2.fl.yelpcdn.com/assets/2/www/img/99493c12711e/ico/stars/v1/stars_4_half.png
p2050
sVreview_count
p2051
I132
sVname
p2052
VVolunteer Park
p2053
sVrating_img_url_small
p2054
Vhttp://s3-media2.fl.yelpcdn.com/assets/2/www/img/a5221e66bc70/ico/stars/v1/stars_small_4_half.png
p2055
sVurl
p2056
Vhttp://www.yelp.com/biz/volunteer-park-seattle
p2057
sVis_closed
p2058
I00
sVphone
p2059
V2066844555
p2060
sVsnippet_text
p2061
VI spent a leisurely couple of hours at Volunteer Park for a post-wedding picnic for my friends Cody R. and Allison V. They brought tables full of fruit and...
p2062
sVimage_url
p2063
Vhttp://s3-media2.fl.yelpcdn.com/bphoto/y3sfY9sJ94uI7CR87qClbA/ms.jpg
p2064
sVcategories
p2065
(lp2066
(lp2067
VParks
p2068
aVparks
p2069
aa(lp2070
VPlaygrounds
p2071
aVplaygrounds
p2072
aasVdisplay_phone
p2073
V+1-206-684-4555
p2074
sVrating_img_url_large
p2075
Vhttp://s3-media4.fl.yelpcdn.com/assets/2/www/img/9f83790ff7f6/ico/stars/v1/stars_large_4_half.png
p2076
sVid
p2077
Vvolunteer-park-seattle
p2078
sVsnippet_image_url
p2079
Vhttp://s3-media2.fl.yelpcdn.com/photo/vwGA8W65E5OfKFtnO95fJw/ms.jpg
p2080
sVlocation
p2081
(dp2082
Vcity
p2083
VSeattle
p2084
sVdisplay_address
p2085
(lp2086
V1247 15th Ave E
p2087
aVCapitol Hill
p2088
aVSeattle, WA 98102
p2089
asVgeo_accuracy
p2090
F8.0
sVneighborhoods
p2091
(lp2092
VCapitol Hill
p2093
asVpostal_code
p2094
V98102
p2095
sVcountry_code
p2096
VUS
p2097
sVaddress
p2098
(lp2099
V1247 15th Ave E
p2100
asVcoordinate
p2101
(dp2102
Vlatitude
p2103
F47.6314278
sVlongitude
p2104
F-122.312645
ssVstate_code
p2105
VWA
p2106
ssasba(ivenues
VenueType
p2107
(dp2108
g3
S'Theaters'
p2109
sg5
(lp2110
(dp2111
Vis_claimed
p2112
I01
sVrating
p2113
F4.5
sVmobile_url
p2114
Vhttp://m.yelp.com/biz/chihuly-garden-and-glass-seattle-2
p2115
sVrating_img_url
p2116
Vhttp://s3-media2.fl.yelpcdn.com/assets/2/www/img/99493c12711e/ico/stars/v1/stars_4_half.png
p2117
sVreview_count
p2118
I577
sVname
p2119
VChihuly Garden and Glass
p2120
sVrating_img_url_small
p2121
Vhttp://s3-media2.fl.yelpcdn.com/assets/2/www/img/a5221e66bc70/ico/stars/v1/stars_small_4_half.png
p2122
sVurl
p2123
Vhttp://www.yelp.com/biz/chihuly-garden-and-glass-seattle-2
p2124
sVis_closed
p2125
I00
sVphone
p2126
V2067534940
p2127
sVsnippet_text
p2128
VI've been to so many museums and Chihuly has to be my top fav! Walking in was just breathtaking, every room I walked into I was in awe. You can't help but...
p2129
sVimage_url
p2130
Vhttp://s3-media4.fl.yelpcdn.com/bphoto/aDVAwSX-I6jFvYBcVwolhA/ms.jpg
p2131
sVcategories
p2132
(lp2133
(lp2134
VArt Galleries
p2135
aVgalleries
p2136
aa(lp2137
VMuseums
p2138
aVmuseums
p2139
aasVdisplay_phone
p2140
V+1-206-753-4940
p2141
sVrating_img_url_large
p2142
Vhttp://s3-media4.fl.yelpcdn.com/assets/2/www/img/9f83790ff7f6/ico/stars/v1/stars_large_4_half.png
p2143
sVid
p2144
Vchihuly-garden-and-glass-seattle-2
p2145
sVsnippet_image_url
p2146
Vhttp://s3-media3.fl.yelpcdn.com/photo/0848oj-vyVKHiGA2HvVwCg/ms.jpg
p2147
sVlocation
p2148
(dp2149
Vcity
p2150
VSeattle
p2151
sVdisplay_address
p2152
(lp2153
V305 Harrison St
p2154
aVLower Queen Anne
p2155
aVSeattle, WA 98109
p2156
asVgeo_accuracy
p2157
F9.5
sVneighborhoods
p2158
(lp2159
VLower Queen Anne
p2160
asVpostal_code
p2161
V98109
p2162
sVcountry_code
p2163
VUS
p2164
sVaddress
p2165
(lp2166
V305 Harrison St
p2167
asVcoordinate
p2168
(dp2169
Vlatitude
p2170
F47.6205673217773
sVlongitude
p2171
F-122.350357055664
ssVstate_code
p2172
VWA
p2173
ssa(dp2174
Vis_claimed
p2175
I00
sVrating
p2176
F4.5
sVmobile_url
p2177
Vhttp://m.yelp.com/biz/benaroya-hall-seattle
p2178
sVrating_img_url
p2179
Vhttp://s3-media2.fl.yelpcdn.com/assets/2/www/img/99493c12711e/ico/stars/v1/stars_4_half.png
p2180
sVreview_count
p2181
I108
sVname
p2182
VBenaroya Hall
p2183
sVrating_img_url_small
p2184
Vhttp://s3-media2.fl.yelpcdn.com/assets/2/www/img/a5221e66bc70/ico/stars/v1/stars_small_4_half.png
p2185
sVurl
p2186
Vhttp://www.yelp.com/biz/benaroya-hall-seattle
p2187
sVis_closed
p2188
I00
sVid
p2189
Vbenaroya-hall-seattle
p2190
sVphone
p2191
V2062154700
p2192
sVsnippet_text
p2193
VExceptional music hall. The acoustics are fabulous. It's quite a beautiful work of architecture. When you buy your tickets, I recommend being up on one of...
p2194
sVimage_url
p2195
Vhttp://s3-media3.fl.yelpcdn.com/bphoto/-m1aeuOLiwhF0yE3Jm6EEw/ms.jpg
p2196
sVcategories
p2197
(lp2198
(lp2199
VPerforming Arts
p2200
aVtheater
p2201
aa(lp2202
VMusic Venues
p2203
aVmusicvenues
p2204
aasVdisplay_phone
p2205
V+1-206-215-4700
p2206
sVrating_img_url_large
p2207
Vhttp://s3-media4.fl.yelpcdn.com/assets/2/www/img/9f83790ff7f6/ico/stars/v1/stars_large_4_half.png
p2208
sVmenu_provider
p2209
Vsingle_platform
p2210
sVmenu_date_updated
p2211
I1418383448
sVsnippet_image_url
p2212
Vhttp://s3-media2.fl.yelpcdn.com/photo/pxSKi7_biFOqF0Sz1sc9cA/ms.jpg
p2213
sVlocation
p2214
(dp2215
Vcity
p2216
VSeattle
p2217
sVdisplay_address
p2218
(lp2219
V200 University St
p2220
aVDowntown
p2221
aVSeattle, WA 98101
p2222
asVgeo_accuracy
p2223
F8.0
sVneighborhoods
p2224
(lp2225
VDowntown
p2226
asVpostal_code
p2227
V98101
p2228
sVcountry_code
p2229
VUS
p2230
sVaddress
p2231
(lp2232
V200 University St
p2233
asVcoordinate
p2234
(dp2235
Vlatitude
p2236
F47.6074075698853
sVlongitude
p2237
F-122.336996197701
ssVstate_code
p2238
VWA
p2239
ssa(dp2240
Vis_claimed
p2241
I00
sVrating
p2242
F4.5
sVmobile_url
p2243
Vhttp://m.yelp.com/biz/seattle-cinerama-theater-seattle
p2244
sVrating_img_url
p2245
Vhttp://s3-media2.fl.yelpcdn.com/assets/2/www/img/99493c12711e/ico/stars/v1/stars_4_half.png
p2246
sVreview_count
p2247
I405
sVname
p2248
VSeattle Cinerama Theater
p2249
sVrating_img_url_small
p2250
Vhttp://s3-media2.fl.yelpcdn.com/assets/2/www/img/a5221e66bc70/ico/stars/v1/stars_small_4_half.png
p2251
sVurl
p2252
Vhttp://www.yelp.com/biz/seattle-cinerama-theater-seattle
p2253
sVis_closed
p2254
I00
sVphone
p2255
V2064486680
p2256
sVsnippet_text
p2257
VFabulous theater and the chocolate popcorn is very unique! Once you enter, you get a whiff of the strong popcorn smell.\u000a\u000aI planned a group event here and...
p2258
sVimage_url
p2259
Vhttp://s3-media4.fl.yelpcdn.com/bphoto/Bt08lD96eJnatmaH2VtTsg/ms.jpg
p2260
sVcategories
p2261
(lp2262
(lp2263
VCinema
p2264
aVmovietheaters
p2265
aasVdisplay_phone
p2266
V+1-206-448-6680
p2267
sVrating_img_url_large
p2268
Vhttp://s3-media4.fl.yelpcdn.com/assets/2/www/img/9f83790ff7f6/ico/stars/v1/stars_large_4_half.png
p2269
sVid
p2270
Vseattle-cinerama-theater-seattle
p2271
sVsnippet_image_url
p2272
Vhttp://s3-media1.fl.yelpcdn.com/photo/LRj0MVcCuZY2xM2_8X5xOw/ms.jpg
p2273
sVlocation
p2274
(dp2275
Vcity
p2276
VSeattle
p2277
sVdisplay_address
p2278
(lp2279
V2100 4th Ave
p2280
aVBelltown
p2281
aVSeattle, WA 98121
p2282
asVgeo_accuracy
p2283
F8.0
sVneighborhoods
p2284
(lp2285
VBelltown
p2286
asVpostal_code
p2287
V98121
p2288
sVcountry_code
p2289
VUS
p2290
sVaddress
p2291
(lp2292
V2100 4th Ave
p2293
asVcoordinate
p2294
(dp2295
Vlatitude
p2296
F47.614201
sVlongitude
p2297
F-122.341354
ssVstate_code
p2298
VWA
p2299
ssa(dp2300
Vis_claimed
p2301
I01
sVrating
p2302
F4.5
sVmobile_url
p2303
Vhttp://m.yelp.com/biz/grand-hyatt-seattle-seattle
p2304
sVrating_img_url
p2305
Vhttp://s3-media2.fl.yelpcdn.com/assets/2/www/img/99493c12711e/ico/stars/v1/stars_4_half.png
p2306
sVreview_count
p2307
I235
sVname
p2308
VGrand Hyatt Seattle
p2309
sVrating_img_url_small
p2310
Vhttp://s3-media2.fl.yelpcdn.com/assets/2/www/img/a5221e66bc70/ico/stars/v1/stars_small_4_half.png
p2311
sVurl
p2312
Vhttp://www.yelp.com/biz/grand-hyatt-seattle-seattle
p2313
sVis_closed
p2314
I00
sVphone
p2315
V2067741234
p2316
sVsnippet_text
p2317
VNew year, new challenge. 150 reviews for 2015! Let's do this!\u000a\u000aI don't review a lot of hotels (I think this might even be my first one). So Grand Hyatt...
p2318
sVimage_url
p2319
Vhttp://s3-media1.fl.yelpcdn.com/bphoto/ZOyafGcy8blT98hngqJJtw/ms.jpg
p2320
sVcategories
p2321
(lp2322
(lp2323
VHotels
p2324
aVhotels
p2325
aa(lp2326
VVenues & Event Spaces
p2327
aVvenues
p2328
aasVdisplay_phone
p2329
V+1-206-774-1234
p2330
sVrating_img_url_large
p2331
Vhttp://s3-media4.fl.yelpcdn.com/assets/2/www/img/9f83790ff7f6/ico/stars/v1/stars_large_4_half.png
p2332
sVid
p2333
Vgrand-hyatt-seattle-seattle
p2334
sVsnippet_image_url
p2335
Vhttp://s3-media2.fl.yelpcdn.com/photo/Vh9cKtxr6pibzM3Rs0fD_Q/ms.jpg
p2336
sVlocation
p2337
(dp2338
Vcross_streets
p2339
V7th Ave & 8th Ave
p2340
sVcity
p2341
VSeattle
p2342
sVdisplay_address
p2343
(lp2344
V721 Pine St
p2345
aVDowntown
p2346
aVSeattle, WA 98101
p2347
asVgeo_accuracy
p2348
F9.5
sVneighborhoods
p2349
(lp2350
VDowntown
p2351
asVpostal_code
p2352
V98101
p2353
sVcountry_code
p2354
VUS
p2355
sVaddress
p2356
(lp2357
V721 Pine St
p2358
asVcoordinate
p2359
(dp2360
Vlatitude
p2361
F47.612564248403004
sVlongitude
p2362
F-122.33403121769
ssVstate_code
p2363
VWA
p2364
ssa(dp2365
Vis_claimed
p2366
I00
sVrating
p2367
F4.5
sVmobile_url
p2368
Vhttp://m.yelp.com/biz/seattle-international-film-festival-seattle
p2369
sVrating_img_url
p2370
Vhttp://s3-media2.fl.yelpcdn.com/assets/2/www/img/99493c12711e/ico/stars/v1/stars_4_half.png
p2371
sVreview_count
p2372
I20
sVname
p2373
VSeattle International Film Festival
p2374
sVrating_img_url_small
p2375
Vhttp://s3-media2.fl.yelpcdn.com/assets/2/www/img/a5221e66bc70/ico/stars/v1/stars_small_4_half.png
p2376
sVurl
p2377
Vhttp://www.yelp.com/biz/seattle-international-film-festival-seattle
p2378
sVis_closed
p2379
I00
sVphone
p2380
V2063822434
p2381
sVsnippet_text
p2382
VI've watched some great films such as "Food Inc" and "Diana Vreeland: The Eye Has to Travel" over the years. I enjoy independent films so I like this event....
p2383
sVimage_url
p2384
Vhttp://s3-media1.fl.yelpcdn.com/bphoto/TWqAx02pN8uKH8kFwYQ6xg/ms.jpg
p2385
sVcategories
p2386
(lp2387
(lp2388
VFestivals
p2389
aVfestivals
p2390
aa(lp2391
VCinema
p2392
aVmovietheaters
p2393
aasVdisplay_phone
p2394
V+1-206-382-2434
p2395
sVrating_img_url_large
p2396
Vhttp://s3-media4.fl.yelpcdn.com/assets/2/www/img/9f83790ff7f6/ico/stars/v1/stars_large_4_half.png
p2397
sVid
p2398
Vseattle-international-film-festival-seattle
p2399
sVsnippet_image_url
p2400
Vhttp://s3-media2.fl.yelpcdn.com/photo/DNxJT3iIhDIubgxtKDQ-yg/ms.jpg
p2401
sVlocation
p2402
(dp2403
Vcity
p2404
VSeattle
p2405
sVdisplay_address
p2406
(lp2407
VSeattle Center/Northwest Rooms
p2408
aV305 Harrison St
p2409
aVLower Queen Anne
p2410
aVSeattle, WA 98109
p2411
asVgeo_accuracy
p2412
F8.0
sVneighborhoods
p2413
(lp2414
VLower Queen Anne
p2415
asVpostal_code
p2416
V98109
p2417
sVcountry_code
p2418
VUS
p2419
sVaddress
p2420
(lp2421
VSeattle Center/Northwest Rooms
p2422
aV305 Harrison St
p2423
asVcoordinate
p2424
(dp2425
Vlatitude
p2426
F47.62212
sVlongitude
p2427
F-122.354042
ssVstate_code
p2428
VWA
p2429
ssasba(ivenues
VenueType
p2430
(dp2431
g3
S'Markets'
p2432
sg5
(lp2433
(dp2434
Vis_claimed
p2435
I00
sVrating
p2436
F5.0
sVmobile_url
p2437
Vhttp://m.yelp.com/biz/vine-st-market-seattle
p2438
sVrating_img_url
p2439
Vhttp://s3-media1.fl.yelpcdn.com/assets/2/www/img/f1def11e4e79/ico/stars/v1/stars_5.png
p2440
sVreview_count
p2441
I24
sVname
p2442
VVine St. Market
p2443
sVrating_img_url_small
p2444
Vhttp://s3-media1.fl.yelpcdn.com/assets/2/www/img/c7623205d5cd/ico/stars/v1/stars_small_5.png
p2445
sVurl
p2446
Vhttp://www.yelp.com/biz/vine-st-market-seattle
p2447
sVis_closed
p2448
I00
sVsnippet_text
p2449
VLittle market with one specialty - BEER! My boyfriend and I are never moving out of Belltown. \u000a\u000aProbably one of the hugest selection of craft beers in a...
p2450
sVimage_url
p2451
Vhttp://s3-media2.fl.yelpcdn.com/bphoto/7CdUKKLqjaoWLF0SJe_kSQ/ms.jpg
p2452
sVcategories
p2453
(lp2454
(lp2455
VBeer, Wine & Spirits
p2456
aVbeer_and_wine
p2457
aasVrating_img_url_large
p2458
Vhttp://s3-media3.fl.yelpcdn.com/assets/2/www/img/22affc4e6c38/ico/stars/v1/stars_large_5.png
p2459
sVid
p2460
Vvine-st-market-seattle
p2461
sVsnippet_image_url
p2462
Vhttp://s3-media1.fl.yelpcdn.com/photo/kvFPD08_ZUYLp0GhSvf36w/ms.jpg
p2463
sVlocation
p2464
(dp2465
Vcross_streets
p2466
VTaylor Ave & 5th Ave
p2467
sVcity
p2468
VSeattle
p2469
sVdisplay_address
p2470
(lp2471
V425 Vine St
p2472
aVBelltown
p2473
aVSeattle, WA 98121
p2474
asVgeo_accuracy
p2475
F9.5
sVneighborhoods
p2476
(lp2477
VBelltown
p2478
asVpostal_code
p2479
V98121
p2480
sVcountry_code
p2481
VUS
p2482
sVaddress
p2483
(lp2484
V425 Vine St
p2485
asVcoordinate
p2486
(dp2487
Vlatitude
p2488
F47.617562
sVlongitude
p2489
F-122.3462
ssVstate_code
p2490
VWA
p2491
ssa(dp2492
Vis_claimed
p2493
I01
sVrating
p2494
F4.5
sVmobile_url
p2495
Vhttp://m.yelp.com/biz/ghost-alley-espresso-seattle
p2496
sVrating_img_url
p2497
Vhttp://s3-media2.fl.yelpcdn.com/assets/2/www/img/99493c12711e/ico/stars/v1/stars_4_half.png
p2498
sVreview_count
p2499
I48
sVname
p2500
VGhost Alley Espresso
p2501
sVrating_img_url_small
p2502
Vhttp://s3-media2.fl.yelpcdn.com/assets/2/www/img/a5221e66bc70/ico/stars/v1/stars_small_4_half.png
p2503
sVurl
p2504
Vhttp://www.yelp.com/biz/ghost-alley-espresso-seattle
p2505
sVis_closed
p2506
I00
sVphone
p2507
V2068050195
p2508
sVsnippet_text
p2509
VSweet Lydia!!! I would have never thought to add a bag of chamomile tea to a white chocolate latte. Yum! I will learn to do that at home. It was a very good...
p2510
sVimage_url
p2511
Vhttp://s3-media3.fl.yelpcdn.com/bphoto/rBwPM9piMDg15ezSFKYz_Q/ms.jpg
p2512
sVcategories
p2513
(lp2514
(lp2515
VCoffee & Tea
p2516
aVcoffee
p2517
aasVdisplay_phone
p2518
V+1-206-805-0195
p2519
sVrating_img_url_large
p2520
Vhttp://s3-media4.fl.yelpcdn.com/assets/2/www/img/9f83790ff7f6/ico/stars/v1/stars_large_4_half.png
p2521
sVid
p2522
Vghost-alley-espresso-seattle
p2523
sVsnippet_image_url
p2524
Vhttp://s3-media4.fl.yelpcdn.com/photo/Oj1DZtmLLA_DA-4bj7ahgQ/ms.jpg
p2525
sVlocation
p2526
(dp2527
Vcross_streets
p2528
VUnion St
p2529
sVcity
p2530
VSeattle
p2531
sVdisplay_address
p2532
(lp2533
V1499 Post Alley
p2534
aVDowntown
p2535
aVSeattle, WA 98101
p2536
asVgeo_accuracy
p2537
F9.5
sVneighborhoods
p2538
(lp2539
VDowntown
p2540
asVpostal_code
p2541
V98101
p2542
sVcountry_code
p2543
VUS
p2544
sVaddress
p2545
(lp2546
V1499 Post Alley
p2547
asVcoordinate
p2548
(dp2549
Vlatitude
p2550
F47.6085961
sVlongitude
p2551
F-122.3404523
ssVstate_code
p2552
VWA
p2553
ssa(dp2554
Vis_claimed
p2555
I00
sVrating
p2556
F4.5
sVmobile_url
p2557
Vhttp://m.yelp.com/biz/pike-place-market-seattle
p2558
sVrating_img_url
p2559
Vhttp://s3-media2.fl.yelpcdn.com/assets/2/www/img/99493c12711e/ico/stars/v1/stars_4_half.png
p2560
sVreview_count
p2561
I2448
sVname
p2562
VPike Place Market
p2563
sVrating_img_url_small
p2564
Vhttp://s3-media2.fl.yelpcdn.com/assets/2/www/img/a5221e66bc70/ico/stars/v1/stars_small_4_half.png
p2565
sVurl
p2566
Vhttp://www.yelp.com/biz/pike-place-market-seattle
p2567
sVis_closed
p2568
I00
sVphone
p2569
V2066827453
p2570
sVsnippet_text
p2571
V+Diversity of shops\u000a+Healthy competition to choose from (ie 4 oil shops)\u000a+Lots of historic Seattle go to's\u000a+Diversity of culture, truly reflects...
p2572
sVimage_url
p2573
Vhttp://s3-media3.fl.yelpcdn.com/bphoto/tGwUxxoiCKvD3mpsrr8W6g/ms.jpg
p2574
sVcategories
p2575
(lp2576
(lp2577
VFruits & Veggies
p2578
aVmarkets
p2579
aa(lp2580
VFarmers Market
p2581
aVfarmersmarket
p2582
aasVdisplay_phone
p2583
V+1-206-682-7453
p2584
sVrating_img_url_large
p2585
Vhttp://s3-media4.fl.yelpcdn.com/assets/2/www/img/9f83790ff7f6/ico/stars/v1/stars_large_4_half.png
p2586
sVid
p2587
Vpike-place-market-seattle
p2588
sVsnippet_image_url
p2589
Vhttp://s3-media1.fl.yelpcdn.com/photo/BHm9l9IBXLcoEyV6pJUIwQ/ms.jpg
p2590
sVlocation
p2591
(dp2592
Vcross_streets
p2593
VPost Aly & Western Ave
p2594
sVcity
p2595
VSeattle
p2596
sVdisplay_address
p2597
(lp2598
V85 Pike St
p2599
aVDowntown
p2600
aVSeattle, WA 98101
p2601
asVgeo_accuracy
p2602
F9.5
sVneighborhoods
p2603
(lp2604
VDowntown
p2605
asVpostal_code
p2606
V98101
p2607
sVcountry_code
p2608
VUS
p2609
sVaddress
p2610
(lp2611
V85 Pike St
p2612
asVcoordinate
p2613
(dp2614
Vlatitude
p2615
F47.608449
sVlongitude
p2616
F-122.340406
ssVstate_code
p2617
VWA
p2618
ssa(dp2619
Vis_claimed
p2620
I01
sVrating
p2621
F4.5
sVmobile_url
p2622
Vhttp://m.yelp.com/biz/bavarian-meats-seattle
p2623
sVrating_img_url
p2624
Vhttp://s3-media2.fl.yelpcdn.com/assets/2/www/img/99493c12711e/ico/stars/v1/stars_4_half.png
p2625
sVreview_count
p2626
I134
sVname
p2627
VBavarian Meats
p2628
sVrating_img_url_small
p2629
Vhttp://s3-media2.fl.yelpcdn.com/assets/2/www/img/a5221e66bc70/ico/stars/v1/stars_small_4_half.png
p2630
sVurl
p2631
Vhttp://www.yelp.com/biz/bavarian-meats-seattle
p2632
sVis_closed
p2633
I00
sVphone
p2634
V2064410942
p2635
sVsnippet_text
p2636
VThis place provides Leavenworth with their bratwurst.  For a while I would bring back bratwurst from Leavenworth in freezer bags, so I could enjoy them at...
p2637
sVimage_url
p2638
Vhttp://s3-media2.fl.yelpcdn.com/bphoto/_HJ_qhvrXsOhPpDqOCjSqQ/ms.jpg
p2639
sVcategories
p2640
(lp2641
(lp2642
VDelis
p2643
aVdelis
p2644
aa(lp2645
VGerman
p2646
aVgerman
p2647
aasVdisplay_phone
p2648
V+1-206-441-0942
p2649
sVrating_img_url_large
p2650
Vhttp://s3-media4.fl.yelpcdn.com/assets/2/www/img/9f83790ff7f6/ico/stars/v1/stars_large_4_half.png
p2651
sVid
p2652
Vbavarian-meats-seattle
p2653
sVsnippet_image_url
p2654
Vhttp://s3-media4.fl.yelpcdn.com/assets/srv0/yelp_styleguide/cc4afe21892e/assets/img/default_avatars/user_medium_square.png
p2655
sVlocation
p2656
(dp2657
Vcross_streets
p2658
VWestern Ave & Virginia St
p2659
sVcity
p2660
VSeattle
p2661
sVdisplay_address
p2662
(lp2663
V1920 Pike Pl
p2664
aVDowntown
p2665
aVSeattle, WA 98101
p2666
asVgeo_accuracy
p2667
F8.0
sVneighborhoods
p2668
(lp2669
VDowntown
p2670
asVpostal_code
p2671
V98101
p2672
sVcountry_code
p2673
VUS
p2674
sVaddress
p2675
(lp2676
V1920 Pike Pl
p2677
asVcoordinate
p2678
(dp2679
Vlatitude
p2680
F47.6102295
sVlongitude
p2681
F-122.3428726
ssVstate_code
p2682
VWA
p2683
ssa(dp2684
Vis_claimed
p2685
I00
sVrating
p2686
F4.5
sVmobile_url
p2687
Vhttp://m.yelp.com/biz/thomas-street-market-seattle
p2688
sVrating_img_url
p2689
Vhttp://s3-media2.fl.yelpcdn.com/assets/2/www/img/99493c12711e/ico/stars/v1/stars_4_half.png
p2690
sVreview_count
p2691
I35
sVname
p2692
VThomas Street Market
p2693
sVrating_img_url_small
p2694
Vhttp://s3-media2.fl.yelpcdn.com/assets/2/www/img/a5221e66bc70/ico/stars/v1/stars_small_4_half.png
p2695
sVurl
p2696
Vhttp://www.yelp.com/biz/thomas-street-market-seattle
p2697
sVis_closed
p2698
I00
sVphone
p2699
V2062680734
p2700
sVsnippet_text
p2701
VThis store opened shortly after I moved to the hill--and they became a life staple for me quickly. Pretty early on, they changed owners--but the current...
p2702
sVimage_url
p2703
Vhttp://s3-media2.fl.yelpcdn.com/bphoto/2ve3H78rr9BOSP1Pe-AaQw/ms.jpg
p2704
sVcategories
p2705
(lp2706
(lp2707
VBeer, Wine & Spirits
p2708
aVbeer_and_wine
p2709
aa(lp2710
VGrocery
p2711
aVgrocery
p2712
aasVdisplay_phone
p2713
V+1-206-268-0734
p2714
sVrating_img_url_large
p2715
Vhttp://s3-media4.fl.yelpcdn.com/assets/2/www/img/9f83790ff7f6/ico/stars/v1/stars_large_4_half.png
p2716
sVid
p2717
Vthomas-street-market-seattle
p2718
sVsnippet_image_url
p2719
Vhttp://s3-media1.fl.yelpcdn.com/photo/D9cwfmnsap_IVgH7458gyg/ms.jpg
p2720
sVlocation
p2721
(dp2722
Vcross_streets
p2723
VJohn St & Thomas St
p2724
sVcity
p2725
VSeattle
p2726
sVdisplay_address
p2727
(lp2728
V233 Summit Ave E
p2729
aVCapitol Hill
p2730
aVSeattle, WA 98102
p2731
asVgeo_accuracy
p2732
F8.0
sVneighborhoods
p2733
(lp2734
VCapitol Hill
p2735
asVpostal_code
p2736
V98102
p2737
sVcountry_code
p2738
VUS
p2739
sVaddress
p2740
(lp2741
V233 Summit Ave E
p2742
asVcoordinate
p2743
(dp2744
Vlatitude
p2745
F47.6206512
sVlongitude
p2746
F-122.3255692
ssVstate_code
p2747
VWA
p2748
ssasba.