(lp0
(ivenues
VenueType
p1
(dp2
S'name'
p3
S'Restaurants'
p4
sS'yelp_results'
p5
(lp6
(dp7
Vis_claimed
p8
I01
sVrating
p9
F4.5
sVmobile_url
p10
Vhttp://m.yelp.com/biz/morsel-seattle
p11
sVrating_img_url
p12
Vhttp://s3-media2.fl.yelpcdn.com/assets/2/www/img/99493c12711e/ico/stars/v1/stars_4_half.png
p13
sVreview_count
p14
I245
sVname
p15
VMorsel
p16
sVrating_img_url_small
p17
Vhttp://s3-media2.fl.yelpcdn.com/assets/2/www/img/a5221e66bc70/ico/stars/v1/stars_small_4_half.png
p18
sVurl
p19
Vhttp://www.yelp.com/biz/morsel-seattle
p20
sVis_closed
p21
I00
sVphone
p22
V2062680154
p23
sVsnippet_text
p24
VGreat great great place for breakfast/brunch! These biscuits are to die for. My favorite things to order are the Spanish Fly or just a biscuit with honey...
p25
sVimage_url
p26
Vhttp://s3-media3.fl.yelpcdn.com/bphoto/uVGyORl8oW63YrkL9C8cGw/ms.jpg
p27
sVcategories
p28
(lp29
(lp30
VCoffee & Tea
p31
aVcoffee
p32
aa(lp33
VComfort Food
p34
aVcomfortfood
p35
aa(lp36
VBreakfast & Brunch
p37
aVbreakfast_brunch
p38
aasVdisplay_phone
p39
V+1-206-268-0154
p40
sVrating_img_url_large
p41
Vhttp://s3-media4.fl.yelpcdn.com/assets/2/www/img/9f83790ff7f6/ico/stars/v1/stars_large_4_half.png
p42
sVid
p43
Vmorsel-seattle
p44
sVsnippet_image_url
p45
Vhttp://s3-media1.fl.yelpcdn.com/photo/eaqAYeZnxYtkA_aLkajnDA/ms.jpg
p46
sVlocation
p47
(dp48
Vcross_streets
p49
V47th St & 50th St
p50
sVcity
p51
VSeattle
p52
sVdisplay_address
p53
(lp54
V4754 University Way NE
p55
aVUniversity District
p56
aVSeattle, WA 98105
p57
asVgeo_accuracy
p58
F8.0
sVneighborhoods
p59
(lp60
VUniversity District
p61
asVpostal_code
p62
V98105
p63
sVcountry_code
p64
VUS
p65
sVaddress
p66
(lp67
V4754 University Way NE
p68
asVcoordinate
p69
(dp70
Vlatitude
p71
F47.664669
sVlongitude
p72
F-122.3128967
ssVstate_code
p73
VWA
p74
ssa(dp75
Vis_claimed
p76
I01
sVrating
p77
F4.5
sVmobile_url
p78
Vhttp://m.yelp.com/biz/art-of-the-table-seattle
p79
sVrating_img_url
p80
Vhttp://s3-media2.fl.yelpcdn.com/assets/2/www/img/99493c12711e/ico/stars/v1/stars_4_half.png
p81
sVreview_count
p82
I381
sVname
p83
VArt of The Table
p84
sVrating_img_url_small
p85
Vhttp://s3-media2.fl.yelpcdn.com/assets/2/www/img/a5221e66bc70/ico/stars/v1/stars_small_4_half.png
p86
sVurl
p87
Vhttp://www.yelp.com/biz/art-of-the-table-seattle
p88
sVis_closed
p89
I00
sVphone
p90
V2062820942
p91
sVsnippet_text
p92
VLet me first say that we've been to places that costs more and wasn't that great at all!  This review is way over due! I'm always bad at doing this when I...
p93
sVimage_url
p94
Vhttp://s3-media1.fl.yelpcdn.com/bphoto/clxiXai-R6kNNaiIf0CShg/ms.jpg
p95
sVcategories
p96
(lp97
(lp98
VAmerican (New)
p99
aVnewamerican
p100
aasVdisplay_phone
p101
V+1-206-282-0942
p102
sVrating_img_url_large
p103
Vhttp://s3-media4.fl.yelpcdn.com/assets/2/www/img/9f83790ff7f6/ico/stars/v1/stars_large_4_half.png
p104
sVid
p105
Vart-of-the-table-seattle
p106
sVsnippet_image_url
p107
Vhttp://s3-media1.fl.yelpcdn.com/photo/PNN2VwEPrjVkdW9k0pV9Rg/ms.jpg
p108
sVlocation
p109
(dp110
Vcross_streets
p111
VN Woodland Park Ave
p112
sVcity
p113
VSeattle
p114
sVdisplay_address
p115
(lp116
V1054 N 39th St
p117
aVFremont
p118
aVSeattle, WA 98103
p119
asVgeo_accuracy
p120
F9.5
sVneighborhoods
p121
(lp122
VFremont
p123
asVpostal_code
p124
V98103
p125
sVcountry_code
p126
VUS
p127
sVaddress
p128
(lp129
V1054 N 39th St
p130
asVcoordinate
p131
(dp132
Vlatitude
p133
F47.654129
sVlongitude
p134
F-122.344183
ssVstate_code
p135
VWA
p136
ssa(dp137
Vis_claimed
p138
I01
sVrating
p139
F4.5
sVmobile_url
p140
Vhttp://m.yelp.com/biz/royal-grinders-seattle-2
p141
sVrating_img_url
p142
Vhttp://s3-media2.fl.yelpcdn.com/assets/2/www/img/99493c12711e/ico/stars/v1/stars_4_half.png
p143
sVreview_count
p144
I358
sVname
p145
VRoyal Grinders
p146
sVrating_img_url_small
p147
Vhttp://s3-media2.fl.yelpcdn.com/assets/2/www/img/a5221e66bc70/ico/stars/v1/stars_small_4_half.png
p148
sVurl
p149
Vhttp://www.yelp.com/biz/royal-grinders-seattle-2
p150
sVis_closed
p151
I00
sVphone
p152
V2065457560
p153
sVsnippet_text
p154
VI was fortunate enough to stumble into this place before a concert and I plan to return any chance I have.  What appears a divey whole in the wall delivers...
p155
sVimage_url
p156
Vhttp://s3-media2.fl.yelpcdn.com/bphoto/lehT6lLP5-vZQxyXNusgpQ/ms.jpg
p157
sVcategories
p158
(lp159
(lp160
VSandwiches
p161
aVsandwiches
p162
aa(lp163
VIce Cream & Frozen Yogurt
p164
aVicecream
p165
aa(lp166
VGelato
p167
aVgelato
p168
aasVdisplay_phone
p169
V+1-206-545-7560
p170
sVrating_img_url_large
p171
Vhttp://s3-media4.fl.yelpcdn.com/assets/2/www/img/9f83790ff7f6/ico/stars/v1/stars_large_4_half.png
p172
sVid
p173
Vroyal-grinders-seattle-2
p174
sVsnippet_image_url
p175
Vhttp://s3-media3.fl.yelpcdn.com/photo/aQ_ZtLoiy8tADSMCg7k1Aw/ms.jpg
p176
sVlocation
p177
(dp178
Vcross_streets
p179
V35th St & N Evanston Ave
p180
sVcity
p181
VSeattle
p182
sVdisplay_address
p183
(lp184
V3526 Fremont Pl N
p185
aVFremont
p186
aVSeattle, WA 98103
p187
asVgeo_accuracy
p188
F8.0
sVneighborhoods
p189
(lp190
VFremont
p191
asVpostal_code
p192
V98103
p193
sVcountry_code
p194
VUS
p195
sVaddress
p196
(lp197
V3526 Fremont Pl N
p198
asVcoordinate
p199
(dp200
Vlatitude
p201
F47.6512985
sVlongitude
p202
F-122.3507767
ssVstate_code
p203
VWA
p204
ssa(dp205
Vis_claimed
p206
I01
sVrating
p207
F4.5
sVmobile_url
p208
Vhttp://m.yelp.com/biz/rockcreek-seafood-and-spirits-seattle
p209
sVrating_img_url
p210
Vhttp://s3-media2.fl.yelpcdn.com/assets/2/www/img/99493c12711e/ico/stars/v1/stars_4_half.png
p211
sVreview_count
p212
I241
sVname
p213
VRockCreek Seafood & Spirits
p214
sVrating_img_url_small
p215
Vhttp://s3-media2.fl.yelpcdn.com/assets/2/www/img/a5221e66bc70/ico/stars/v1/stars_small_4_half.png
p216
sVurl
p217
Vhttp://www.yelp.com/biz/rockcreek-seafood-and-spirits-seattle
p218
sVis_closed
p219
I00
sVid
p220
Vrockcreek-seafood-and-spirits-seattle
p221
sVphone
p222
V2065577532
p223
sVsnippet_text
p224
VI had the pleasure of scooping up the last available reservation at RockCreek on a busy weekend night recently and I was extremely impressed. RockCreek...
p225
sVimage_url
p226
Vhttp://s3-media2.fl.yelpcdn.com/bphoto/fxflrysgLsOebHaYrhVGeQ/ms.jpg
p227
sVcategories
p228
(lp229
(lp230
VSeafood
p231
aVseafood
p232
aasVdisplay_phone
p233
V+1-206-557-7532
p234
sVrating_img_url_large
p235
Vhttp://s3-media4.fl.yelpcdn.com/assets/2/www/img/9f83790ff7f6/ico/stars/v1/stars_large_4_half.png
p236
sVmenu_provider
p237
Vsingle_platform
p238
sVmenu_date_updated
p239
I1422017666
sVsnippet_image_url
p240
Vhttp://s3-media4.fl.yelpcdn.com/photo/jQQp1mOUmzl1dy-1viVOGw/ms.jpg
p241
sVlocation
p242
(dp243
Vcross_streets
p244
V44th St & 43rd St
p245
sVcity
p246
VSeattle
p247
sVdisplay_address
p248
(lp249
V4300 Fremont Ave N
p250
aVFremont
p251
aVSeattle, WA 98103
p252
asVgeo_accuracy
p253
F9.5
sVneighborhoods
p254
(lp255
VFremont
p256
asVpostal_code
p257
V98103
p258
sVcountry_code
p259
VUS
p260
sVaddress
p261
(lp262
V4300 Fremont Ave N
p263
asVcoordinate
p264
(dp265
Vlatitude
p266
F47.659636
sVlongitude
p267
F-122.349719
ssVstate_code
p268
VWA
p269
ssa(dp270
Vis_claimed
p271
I00
sVrating
p272
F4.5
sVmobile_url
p273
Vhttp://m.yelp.com/biz/russells-seattle
p274
sVrating_img_url
p275
Vhttp://s3-media2.fl.yelpcdn.com/assets/2/www/img/99493c12711e/ico/stars/v1/stars_4_half.png
p276
sVreview_count
p277
I35
sVname
p278
VRussell's
p279
sVrating_img_url_small
p280
Vhttp://s3-media2.fl.yelpcdn.com/assets/2/www/img/a5221e66bc70/ico/stars/v1/stars_small_4_half.png
p281
sVurl
p282
Vhttp://www.yelp.com/biz/russells-seattle
p283
sVis_closed
p284
I00
sVphone
p285
V2065471653
p286
sVsnippet_text
p287
VCame to watch the Superbowl. \u000a\u000aBest bar in Wallingford.  The owner is great. the patrons are great, the food is great, the cocktails, they are great...
p288
sVimage_url
p289
Vhttp://s3-media2.fl.yelpcdn.com/bphoto/Rqc7pLSQse9lpXlNwIXiUw/ms.jpg
p290
sVcategories
p291
(lp292
(lp293
VPubs
p294
aVpubs
p295
aa(lp296
VTapas/Small Plates
p297
aVtapasmallplates
p298
aasVdisplay_phone
p299
V+1-206-547-1653
p300
sVrating_img_url_large
p301
Vhttp://s3-media4.fl.yelpcdn.com/assets/2/www/img/9f83790ff7f6/ico/stars/v1/stars_large_4_half.png
p302
sVid
p303
Vrussells-seattle
p304
sVsnippet_image_url
p305
Vhttp://s3-media2.fl.yelpcdn.com/photo/ygqGwD62lRm_d-uaQSZIuQ/ms.jpg
p306
sVlocation
p307
(dp308
Vcross_streets
p309
V42nd St & 41st St
p310
sVcity
p311
VSeattle
p312
sVdisplay_address
p313
(lp314
V4111 Stone Way N
p315
aVFremont
p316
aVSeattle, WA 98103
p317
asVgeo_accuracy
p318
F8.0
sVneighborhoods
p319
(lp320
VFremont
p321
asVpostal_code
p322
V98103
p323
sVcountry_code
p324
VUS
p325
sVaddress
p326
(lp327
V4111 Stone Way N
p328
asVcoordinate
p329
(dp330
Vlatitude
p331
F47.6569976806641
sVlongitude
p332
F-122.342765808105
ssVstate_code
p333
VWA
p334
ssasba(ivenues
VenueType
p335
(dp336
g3
S'Cafes'
p337
sg5
(lp338
(dp339
Vis_claimed
p340
I01
sVrating
p341
F4.5
sVmobile_url
p342
Vhttp://m.yelp.com/biz/tea-republik-seattle
p343
sVrating_img_url
p344
Vhttp://s3-media2.fl.yelpcdn.com/assets/2/www/img/99493c12711e/ico/stars/v1/stars_4_half.png
p345
sVreview_count
p346
I109
sVname
p347
VTea Republik
p348
sVrating_img_url_small
p349
Vhttp://s3-media2.fl.yelpcdn.com/assets/2/www/img/a5221e66bc70/ico/stars/v1/stars_small_4_half.png
p350
sVurl
p351
Vhttp://www.yelp.com/biz/tea-republik-seattle
p352
sVis_closed
p353
I00
sVphone
p354
V2065010208
p355
sVsnippet_text
p356
VHad to get some tea after eating awesomely greasy this food down the street.  The decor is lovely.  Very quiet and peaceful.  There are plenty of tables for...
p357
sVimage_url
p358
Vhttp://s3-media2.fl.yelpcdn.com/bphoto/kqDCeBndp9YHiMPVyRuQsw/ms.jpg
p359
sVcategories
p360
(lp361
(lp362
VTea Rooms
p363
aVtea
p364
aa(lp365
VCoffee & Tea
p366
aVcoffee
p367
aasVdisplay_phone
p368
V+1-206-501-0208
p369
sVrating_img_url_large
p370
Vhttp://s3-media4.fl.yelpcdn.com/assets/2/www/img/9f83790ff7f6/ico/stars/v1/stars_large_4_half.png
p371
sVid
p372
Vtea-republik-seattle
p373
sVsnippet_image_url
p374
Vhttp://s3-media4.fl.yelpcdn.com/photo/-Z_dvnEtZJ5LS2MVIpXJOQ/ms.jpg
p375
sVlocation
p376
(dp377
Vcross_streets
p378
V45th St & 47th St
p379
sVcity
p380
VSeattle
p381
sVdisplay_address
p382
(lp383
V4527 University Way NE
p384
aVUniversity District
p385
aVSeattle, WA 98105
p386
asVgeo_accuracy
p387
F9.5
sVneighborhoods
p388
(lp389
VUniversity District
p390
asVpostal_code
p391
V98105
p392
sVcountry_code
p393
VUS
p394
sVaddress
p395
(lp396
V4527 University Way NE
p397
asVcoordinate
p398
(dp399
Vlatitude
p400
F47.6620911
sVlongitude
p401
F-122.3132793
ssVstate_code
p402
VWA
p403
ssa(dp404
Vis_claimed
p405
I01
sVrating
p406
F4.5
sVmobile_url
p407
Vhttp://m.yelp.com/biz/milstead-and-co-seattle-3
p408
sVrating_img_url
p409
Vhttp://s3-media2.fl.yelpcdn.com/assets/2/www/img/99493c12711e/ico/stars/v1/stars_4_half.png
p410
sVreview_count
p411
I167
sVname
p412
VMilstead & Co.
p413
sVrating_img_url_small
p414
Vhttp://s3-media2.fl.yelpcdn.com/assets/2/www/img/a5221e66bc70/ico/stars/v1/stars_small_4_half.png
p415
sVurl
p416
Vhttp://www.yelp.com/biz/milstead-and-co-seattle-3
p417
sVis_closed
p418
I00
sVphone
p419
V2066594814
p420
sVsnippet_text
p421
VWhat an incredible coffee shop. It's not the closest one to my house but I'll be driving the extra 10 minutes to get there any time I want to get out and...
p422
sVimage_url
p423
Vhttp://s3-media4.fl.yelpcdn.com/bphoto/AxCr1Vpta_aIExQ7saRRDw/ms.jpg
p424
sVcategories
p425
(lp426
(lp427
VCoffee & Tea
p428
aVcoffee
p429
aasVdisplay_phone
p430
V+1-206-659-4814
p431
sVrating_img_url_large
p432
Vhttp://s3-media4.fl.yelpcdn.com/assets/2/www/img/9f83790ff7f6/ico/stars/v1/stars_large_4_half.png
p433
sVid
p434
Vmilstead-and-co-seattle-3
p435
sVsnippet_image_url
p436
Vhttp://s3-media1.fl.yelpcdn.com/photo/6LSvtAr0LX5memf1R6LaGw/ms.jpg
p437
sVlocation
p438
(dp439
Vcross_streets
p440
VN Fremont Ave & N Aurora Ave
p441
sVcity
p442
VSeattle
p443
sVdisplay_address
p444
(lp445
V770 N 34th St
p446
aVFremont
p447
aVSeattle, WA 98103
p448
asVgeo_accuracy
p449
F9.5
sVneighborhoods
p450
(lp451
VFremont
p452
asVpostal_code
p453
V98103
p454
sVcountry_code
p455
VUS
p456
sVaddress
p457
(lp458
V770 N 34th St
p459
asVcoordinate
p460
(dp461
Vlatitude
p462
F47.649380354164
sVlongitude
p463
F-122.34774765944
ssVstate_code
p464
VWA
p465
ssa(dp466
Vis_claimed
p467
I01
sVrating
p468
F4.5
sVmobile_url
p469
Vhttp://m.yelp.com/biz/slate-coffee-bar-seattle
p470
sVrating_img_url
p471
Vhttp://s3-media2.fl.yelpcdn.com/assets/2/www/img/99493c12711e/ico/stars/v1/stars_4_half.png
p472
sVreview_count
p473
I103
sVname
p474
VSlate Coffee Bar
p475
sVrating_img_url_small
p476
Vhttp://s3-media2.fl.yelpcdn.com/assets/2/www/img/a5221e66bc70/ico/stars/v1/stars_small_4_half.png
p477
sVurl
p478
Vhttp://www.yelp.com/biz/slate-coffee-bar-seattle
p479
sVis_closed
p480
I00
sVphone
p481
V2062407174
p482
sVsnippet_text
p483
VI want to live in Ballard just so that I can call Slate Coffee Bar my "local" coffee hang out. I come here every time I'm in town and suddenly I feel like I...
p484
sVimage_url
p485
Vhttp://s3-media1.fl.yelpcdn.com/bphoto/SaCRf-iay1brUntGNLcBRQ/ms.jpg
p486
sVcategories
p487
(lp488
(lp489
VCoffee & Tea
p490
aVcoffee
p491
aasVdisplay_phone
p492
V+1-206-240-7174
p493
sVrating_img_url_large
p494
Vhttp://s3-media4.fl.yelpcdn.com/assets/2/www/img/9f83790ff7f6/ico/stars/v1/stars_large_4_half.png
p495
sVid
p496
Vslate-coffee-bar-seattle
p497
sVsnippet_image_url
p498
Vhttp://s3-media4.fl.yelpcdn.com/photo/-A-OulihBwoK3HFeeONsbw/ms.jpg
p499
sVlocation
p500
(dp501
Vcross_streets
p502
V54th St & Market St
p503
sVcity
p504
VSeattle
p505
sVdisplay_address
p506
(lp507
V5413 6th Ave NW
p508
aVBallard
p509
aVSeattle, WA 98107
p510
asVgeo_accuracy
p511
F8.0
sVneighborhoods
p512
(lp513
VBallard
p514
asVpostal_code
p515
V98107
p516
sVcountry_code
p517
VUS
p518
sVaddress
p519
(lp520
V5413 6th Ave NW
p521
asVcoordinate
p522
(dp523
Vlatitude
p524
F47.6683502
sVlongitude
p525
F-122.3635406
ssVstate_code
p526
VWA
p527
ssa(dp528
Vis_claimed
p529
I00
sVrating
p530
F4.5
sVmobile_url
p531
Vhttp://m.yelp.com/biz/etg-coffee-and-bakery-seattle
p532
sVrating_img_url
p533
Vhttp://s3-media2.fl.yelpcdn.com/assets/2/www/img/99493c12711e/ico/stars/v1/stars_4_half.png
p534
sVreview_count
p535
I72
sVname
p536
VETG Coffee and Bakery
p537
sVrating_img_url_small
p538
Vhttp://s3-media2.fl.yelpcdn.com/assets/2/www/img/a5221e66bc70/ico/stars/v1/stars_small_4_half.png
p539
sVurl
p540
Vhttp://www.yelp.com/biz/etg-coffee-and-bakery-seattle
p541
sVis_closed
p542
I00
sVphone
p543
V2066333685
p544
sVsnippet_text
p545
VETG comes close to being the perfect coffee shop. Why, you may ask?\u000a-A manageable drink menu; all items being made or roasted on site\u000a-Fresh baked goods. As...
p546
sVimage_url
p547
Vhttp://s3-media1.fl.yelpcdn.com/bphoto/pf9gTgUgSizPU_N_gPFF4Q/ms.jpg
p548
sVcategories
p549
(lp550
(lp551
VCoffee & Tea
p552
aVcoffee
p553
aa(lp554
VBakeries
p555
aVbakeries
p556
aasVdisplay_phone
p557
V+1-206-633-3685
p558
sVrating_img_url_large
p559
Vhttp://s3-media4.fl.yelpcdn.com/assets/2/www/img/9f83790ff7f6/ico/stars/v1/stars_large_4_half.png
p560
sVid
p561
Vetg-coffee-and-bakery-seattle
p562
sVsnippet_image_url
p563
Vhttp://s3-media4.fl.yelpcdn.com/photo/Wiw8QoxLVy0CH0O7ocTLYQ/ms.jpg
p564
sVlocation
p565
(dp566
Vcross_streets
p567
V35th St & N Evanston Ave
p568
sVcity
p569
VSeattle
p570
sVdisplay_address
p571
(lp572
V3512 Fremont Pl N
p573
aVFremont
p574
aVSeattle, WA 98103
p575
asVgeo_accuracy
p576
F8.0
sVneighborhoods
p577
(lp578
VFremont
p579
asVpostal_code
p580
V98103
p581
sVcountry_code
p582
VUS
p583
sVaddress
p584
(lp585
V3512 Fremont Pl N
p586
asVcoordinate
p587
(dp588
Vlatitude
p589
F47.6507004350424
sVlongitude
p590
F-122.3502510041
ssVstate_code
p591
VWA
p592
ssa(dp593
Vis_claimed
p594
I01
sVrating
p595
F4.5
sVmobile_url
p596
Vhttp://m.yelp.com/biz/lake-union-cafe-and-custom-bakery-seattle
p597
sVrating_img_url
p598
Vhttp://s3-media2.fl.yelpcdn.com/assets/2/www/img/99493c12711e/ico/stars/v1/stars_4_half.png
p599
sVreview_count
p600
I40
sVname
p601
VLake Union Cafe & Custom Bakery
p602
sVrating_img_url_small
p603
Vhttp://s3-media2.fl.yelpcdn.com/assets/2/www/img/a5221e66bc70/ico/stars/v1/stars_small_4_half.png
p604
sVurl
p605
Vhttp://www.yelp.com/biz/lake-union-cafe-and-custom-bakery-seattle
p606
sVis_closed
p607
I00
sVphone
p608
V2065681258
p609
sVsnippet_text
p610
VFrom start to finish, everything about my experience with Lake Union Cafe was wonderful.\u000a\u000aI had procrastinated on ordering my wedding cake for my May 11th...
p611
sVimage_url
p612
Vhttp://s3-media3.fl.yelpcdn.com/bphoto/-cvyrLaOMMWfW8GJbYrNJA/ms.jpg
p613
sVcategories
p614
(lp615
(lp616
VVenues & Event Spaces
p617
aVvenues
p618
aa(lp619
VBakeries
p620
aVbakeries
p621
aa(lp622
VCaterers
p623
aVcatering
p624
aasVdisplay_phone
p625
V+1-206-568-1258
p626
sVrating_img_url_large
p627
Vhttp://s3-media4.fl.yelpcdn.com/assets/2/www/img/9f83790ff7f6/ico/stars/v1/stars_large_4_half.png
p628
sVid
p629
Vlake-union-cafe-and-custom-bakery-seattle
p630
sVsnippet_image_url
p631
Vhttp://s3-media4.fl.yelpcdn.com/photo/KeswNx5669xRIX62Isuz6A/ms.jpg
p632
sVlocation
p633
(dp634
Vcity
p635
VSeattle
p636
sVdisplay_address
p637
(lp638
V3119 Eastlake Ave E
p639
aVEastlake
p640
aVSeattle, WA 98102
p641
asVgeo_accuracy
p642
F8.0
sVneighborhoods
p643
(lp644
VEastlake
p645
asVpostal_code
p646
V98102
p647
sVcountry_code
p648
VUS
p649
sVaddress
p650
(lp651
V3119 Eastlake Ave E
p652
asVcoordinate
p653
(dp654
Vlatitude
p655
F47.6494102
sVlongitude
p656
F-122.3233566
ssVstate_code
p657
VWA
p658
ssasba(ivenues
VenueType
p659
(dp660
g3
S'Bars'
p661
sg5
(lp662
(dp663
Vis_claimed
p664
I01
sVrating
p665
F4.5
sVmobile_url
p666
Vhttp://m.yelp.com/biz/schilling-cider-house-seattle
p667
sVrating_img_url
p668
Vhttp://s3-media2.fl.yelpcdn.com/assets/2/www/img/99493c12711e/ico/stars/v1/stars_4_half.png
p669
sVreview_count
p670
I39
sVname
p671
VSchilling Cider House
p672
sVrating_img_url_small
p673
Vhttp://s3-media2.fl.yelpcdn.com/assets/2/www/img/a5221e66bc70/ico/stars/v1/stars_small_4_half.png
p674
sVurl
p675
Vhttp://www.yelp.com/biz/schilling-cider-house-seattle
p676
sVis_closed
p677
I00
sVphone
p678
V2064207088
p679
sVsnippet_text
p680
V32 ciders on tap! \u000a\u000aThis trap room also provides bottled cider from their fridge!! \u000a\u000aAlso, they have water on tap for patrons to serve themselves. Adorable....
p681
sVimage_url
p682
Vhttp://s3-media4.fl.yelpcdn.com/bphoto/A6KyO7VXSLsyGM3JkRmQBg/ms.jpg
p683
sVcategories
p684
(lp685
(lp686
VBars
p687
aVbars
p688
aa(lp689
VBeer, Wine & Spirits
p690
aVbeer_and_wine
p691
aa(lp692
VBreweries
p693
aVbreweries
p694
aasVdisplay_phone
p695
V+1-206-420-7088
p696
sVrating_img_url_large
p697
Vhttp://s3-media4.fl.yelpcdn.com/assets/2/www/img/9f83790ff7f6/ico/stars/v1/stars_large_4_half.png
p698
sVid
p699
Vschilling-cider-house-seattle
p700
sVsnippet_image_url
p701
Vhttp://s3-media2.fl.yelpcdn.com/photo/UzK-DzfjWVzebxHriqeAQg/ms.jpg
p702
sVlocation
p703
(dp704
Vcross_streets
p705
VN Aurora Ave & N Fremont Ave
p706
sVcity
p707
VSeattle
p708
sVdisplay_address
p709
(lp710
V708 N 34th St
p711
aVFremont
p712
aVSeattle, WA 98103
p713
asVgeo_accuracy
p714
F8.0
sVneighborhoods
p715
(lp716
VFremont
p717
asVpostal_code
p718
V98103
p719
sVcountry_code
p720
VUS
p721
sVaddress
p722
(lp723
V708 N 34th St
p724
asVcoordinate
p725
(dp726
Vlatitude
p727
F47.6496429
sVlongitude
p728
F-122.3491287
ssVstate_code
p729
VWA
p730
ssa(dp731
Vis_claimed
p732
I01
sVrating
p733
F4.5
sVmobile_url
p734
Vhttp://m.yelp.com/biz/art-of-the-table-seattle
p735
sVrating_img_url
p736
Vhttp://s3-media2.fl.yelpcdn.com/assets/2/www/img/99493c12711e/ico/stars/v1/stars_4_half.png
p737
sVreview_count
p738
I381
sVname
p739
VArt of The Table
p740
sVrating_img_url_small
p741
Vhttp://s3-media2.fl.yelpcdn.com/assets/2/www/img/a5221e66bc70/ico/stars/v1/stars_small_4_half.png
p742
sVurl
p743
Vhttp://www.yelp.com/biz/art-of-the-table-seattle
p744
sVis_closed
p745
I00
sVphone
p746
V2062820942
p747
sVsnippet_text
p748
VLet me first say that we've been to places that costs more and wasn't that great at all!  This review is way over due! I'm always bad at doing this when I...
p749
sVimage_url
p750
Vhttp://s3-media1.fl.yelpcdn.com/bphoto/clxiXai-R6kNNaiIf0CShg/ms.jpg
p751
sVcategories
p752
(lp753
(lp754
VAmerican (New)
p755
aVnewamerican
p756
aasVdisplay_phone
p757
V+1-206-282-0942
p758
sVrating_img_url_large
p759
Vhttp://s3-media4.fl.yelpcdn.com/assets/2/www/img/9f83790ff7f6/ico/stars/v1/stars_large_4_half.png
p760
sVid
p761
Vart-of-the-table-seattle
p762
sVsnippet_image_url
p763
Vhttp://s3-media1.fl.yelpcdn.com/photo/PNN2VwEPrjVkdW9k0pV9Rg/ms.jpg
p764
sVlocation
p765
(dp766
Vcross_streets
p767
VN Woodland Park Ave
p768
sVcity
p769
VSeattle
p770
sVdisplay_address
p771
(lp772
V1054 N 39th St
p773
aVFremont
p774
aVSeattle, WA 98103
p775
asVgeo_accuracy
p776
F9.5
sVneighborhoods
p777
(lp778
VFremont
p779
asVpostal_code
p780
V98103
p781
sVcountry_code
p782
VUS
p783
sVaddress
p784
(lp785
V1054 N 39th St
p786
asVcoordinate
p787
(dp788
Vlatitude
p789
F47.654129
sVlongitude
p790
F-122.344183
ssVstate_code
p791
VWA
p792
ssa(dp793
Vis_claimed
p794
I00
sVrating
p795
F4.5
sVmobile_url
p796
Vhttp://m.yelp.com/biz/babirusa-seattle
p797
sVrating_img_url
p798
Vhttp://s3-media2.fl.yelpcdn.com/assets/2/www/img/99493c12711e/ico/stars/v1/stars_4_half.png
p799
sVreview_count
p800
I24
sVname
p801
VBabirusa
p802
sVrating_img_url_small
p803
Vhttp://s3-media2.fl.yelpcdn.com/assets/2/www/img/a5221e66bc70/ico/stars/v1/stars_small_4_half.png
p804
sVurl
p805
Vhttp://www.yelp.com/biz/babirusa-seattle
p806
sVis_closed
p807
I00
sVphone
p808
V2063292744
p809
sVsnippet_text
p810
VBabirusa is the sort of place for which you need to calibrate your expectations. It's a small plates place, but the menu doesn't really lend itself to the...
p811
sVimage_url
p812
Vhttp://s3-media1.fl.yelpcdn.com/bphoto/GIh7INv2axQKqriaECSYew/ms.jpg
p813
sVcategories
p814
(lp815
(lp816
VBars
p817
aVbars
p818
aa(lp819
VAmerican (New)
p820
aVnewamerican
p821
aasVdisplay_phone
p822
V+1-206-329-2744
p823
sVrating_img_url_large
p824
Vhttp://s3-media4.fl.yelpcdn.com/assets/2/www/img/9f83790ff7f6/ico/stars/v1/stars_large_4_half.png
p825
sVid
p826
Vbabirusa-seattle
p827
sVsnippet_image_url
p828
Vhttp://s3-media2.fl.yelpcdn.com/photo/bvxdmnFqFA6ONEzi7oJU5w/ms.jpg
p829
sVlocation
p830
(dp831
Vcross_streets
p832
VBoston St & Lynn St
p833
sVcity
p834
VSeattle
p835
sVdisplay_address
p836
(lp837
V2236 Eastlake Ave E
p838
aVEastlake
p839
aVSeattle, WA 98102
p840
asVgeo_accuracy
p841
F9.5
sVneighborhoods
p842
(lp843
VEastlake
p844
asVpostal_code
p845
V98102
p846
sVcountry_code
p847
VUS
p848
sVaddress
p849
(lp850
V2236 Eastlake Ave E
p851
asVcoordinate
p852
(dp853
Vlatitude
p854
F47.6393564
sVlongitude
p855
F-122.3254135
ssVstate_code
p856
VWA
p857
ssa(dp858
Vis_claimed
p859
I01
sVrating
p860
F4.5
sVmobile_url
p861
Vhttp://m.yelp.com/biz/fremont-brewing-seattle
p862
sVrating_img_url
p863
Vhttp://s3-media2.fl.yelpcdn.com/assets/2/www/img/99493c12711e/ico/stars/v1/stars_4_half.png
p864
sVreview_count
p865
I251
sVname
p866
VFremont Brewing
p867
sVrating_img_url_small
p868
Vhttp://s3-media2.fl.yelpcdn.com/assets/2/www/img/a5221e66bc70/ico/stars/v1/stars_small_4_half.png
p869
sVurl
p870
Vhttp://www.yelp.com/biz/fremont-brewing-seattle
p871
sVis_closed
p872
I00
sVphone
p873
V2064202407
p874
sVsnippet_text
p875
VWow, what a great spot.\u000a\u000aToday we were at Fremont on our Seattle beer tour. We were down from Calgary for a few days to have some great IPAs et al.\u000a\u000aWe had...
p876
sVimage_url
p877
Vhttp://s3-media1.fl.yelpcdn.com/bphoto/mbewJOsDdlmtS17U-uRJAQ/ms.jpg
p878
sVcategories
p879
(lp880
(lp881
VBreweries
p882
aVbreweries
p883
aa(lp884
VBars
p885
aVbars
p886
aasVdisplay_phone
p887
V+1-206-420-2407
p888
sVrating_img_url_large
p889
Vhttp://s3-media4.fl.yelpcdn.com/assets/2/www/img/9f83790ff7f6/ico/stars/v1/stars_large_4_half.png
p890
sVid
p891
Vfremont-brewing-seattle
p892
sVsnippet_image_url
p893
Vhttp://s3-media1.fl.yelpcdn.com/photo/sLPbkqb_P7EDb6xYgQYNUQ/ms.jpg
p894
sVlocation
p895
(dp896
Vcross_streets
p897
VN Albion Pl & N Woodland Park Ave
p898
sVcity
p899
VSeattle
p900
sVdisplay_address
p901
(lp902
V1050 N 34th St
p903
aVFremont
p904
aVSeattle, WA 98103
p905
asVgeo_accuracy
p906
F8.0
sVneighborhoods
p907
(lp908
VFremont
p909
asVpostal_code
p910
V98103
p911
sVcountry_code
p912
VUS
p913
sVaddress
p914
(lp915
V1050 N 34th St
p916
asVcoordinate
p917
(dp918
Vlatitude
p919
F47.648987
sVlongitude
p920
F-122.344421
ssVstate_code
p921
VWA
p922
ssa(dp923
Vrating
p924
F4.5
sVrating_img_url
p925
Vhttp://s3-media2.fl.yelpcdn.com/assets/2/www/img/99493c12711e/ico/stars/v1/stars_4_half.png
p926
sVdisplay_phone
p927
V+1-206-402-3042
p928
sVgift_certificates
p929
(lp930
(dp931
Vurl
p932
Vhttp://www.yelp.com/gift-certificates/lucid-seattle
p933
sVunused_balances
p934
VCREDIT
p935
sVid
p936
V6PkuZ5kIyvr08LHpdyKBSg
p937
sVimage_url
p938
Vhttp://s3-media4.fl.yelpcdn.com/bphoto/u6KI66Ictdc9Xoii1lmF7w/m.jpg
p939
sVoptions
p940
(lp941
(dp942
Vprice
p943
I1000
sVformatted_price
p944
V$10
p945
sa(dp946
Vprice
p947
I2500
sVformatted_price
p948
V$25
p949
sa(dp950
Vprice
p951
I5000
sVformatted_price
p952
V$50
p953
sa(dp954
Vprice
p955
I7500
sVformatted_price
p956
V$75
p957
sa(dp958
Vprice
p959
I10000
sVformatted_price
p960
V$100
p961
sa(dp962
Vprice
p963
I15000
sVformatted_price
p964
V$150
p965
sasVcurrency_code
p966
VUSD
p967
sasVid
p968
Vlucid-seattle
p969
sVis_closed
p970
I00
sVmobile_url
p971
Vhttp://m.yelp.com/biz/lucid-seattle
p972
sVreview_count
p973
I84
sVcategories
p974
(lp975
(lp976
VJazz & Blues
p977
aVjazzandblues
p978
aa(lp979
VLounges
p980
aVlounges
p981
aasVlocation
p982
(dp983
Vcross_streets
p984
V52nd St & 55th St
p985
sVcity
p986
VSeattle
p987
sVdisplay_address
p988
(lp989
V5241 University Way NE
p990
aVUniversity District
p991
aVSeattle, WA 98105
p992
asVgeo_accuracy
p993
F9.5
sVneighborhoods
p994
(lp995
VUniversity District
p996
asVpostal_code
p997
V98105
p998
sVcountry_code
p999
VUS
p1000
sVaddress
p1001
(lp1002
V5241 University Way NE
p1003
asVcoordinate
p1004
(dp1005
Vlatitude
p1006
F47.667618
sVlongitude
p1007
F-122.3133294
ssVstate_code
p1008
VWA
p1009
ssVis_claimed
p1010
I01
sVrating_img_url_small
p1011
Vhttp://s3-media2.fl.yelpcdn.com/assets/2/www/img/a5221e66bc70/ico/stars/v1/stars_small_4_half.png
p1012
sVphone
p1013
V2064023042
p1014
sVsnippet_text
p1015
VLucid is an unexpectedly adult venue for being on the Ave. They host complicated drinks, live music and art. It takes a higher consciousness to truly...
p1016
sVrating_img_url_large
p1017
Vhttp://s3-media4.fl.yelpcdn.com/assets/2/www/img/9f83790ff7f6/ico/stars/v1/stars_large_4_half.png
p1018
sVsnippet_image_url
p1019
Vhttp://s3-media3.fl.yelpcdn.com/photo/WK8u5L2X_Rp2GwLymUWEkQ/ms.jpg
p1020
sVname
p1021
VLUCID
p1022
sVurl
p1023
Vhttp://www.yelp.com/biz/lucid-seattle
p1024
sVdeals
p1025
(lp1026
(dp1027
Vis_popular
p1028
I01
sVwhat_you_get
p1029
VYou get a voucher redeemable for $30 at LUCID.\u000aPrint out your voucher, or redeem on your phone with the <a href="http://www.yelp.com/yelpmobile">Yelp app</a>.
p1030
sVtime_start
p1031
I1415811162
sVtitle
p1032
V$20 for $30
p1033
sVurl
p1034
Vhttp://www.yelp.com/deals/lucid-seattle
p1035
sVadditional_restrictions
p1036
VPromotion lasts for 1 year from date of purchase. After that period, your voucher is redeemable for the amount you paid. Not valid with other vouchers, certificates, or offers. Must be 21 or older. Only 1 voucher(s) can be purchased and redeemed per person. Must use in a single visit. Up to 4 can be purchased as gifts for others. Must make appointment at least 24 hours in advance. Subject to the <a target="_blank" href="http://www.yelp.com/tos/general_b2c_us_20120911">General Terms</a>.
p1037
sVid
p1038
VJFay-Yrv_lPod2s9GuHj0A
p1039
sVimage_url
p1040
Vhttp://s3-media3.fl.yelpcdn.com/dphoto/Dj4-WhHakLW61hn-xCQbQw/m.jpg
p1041
sVoptions
p1042
(lp1043
(dp1044
Voriginal_price
p1045
I3000
sVtitle
p1046
V$20 for $30
p1047
sVprice
p1048
I2000
sVpurchase_url
p1049
Vhttps://www.yelp.com/checkout/deal/xHcWfZHYLT2S1gcC5CS1sQ
p1050
sVremaining_count
p1051
I37
sVformatted_original_price
p1052
V$30
p1053
sVformatted_price
p1054
V$20
p1055
sVis_quantity_limited
p1056
I01
sasVcurrency_code
p1057
VUSD
p1058
sasVimage_url
p1059
Vhttp://s3-media2.fl.yelpcdn.com/bphoto/Xb22YdIJOKMWjc3_q9KFVA/ms.jpg
p1060
sVmenu_provider
p1061
Vsingle_platform
p1062
sVmenu_date_updated
p1063
I1417841369
sasba(ivenues
VenueType
p1064
(dp1065
g3
S'Nightclubs'
p1066
sg5
(lp1067
(dp1068
Vis_claimed
p1069
I01
sVrating
p1070
F5.0
sVmobile_url
p1071
Vhttp://m.yelp.com/biz/injoy-entertainment-seattle
p1072
sVrating_img_url
p1073
Vhttp://s3-media1.fl.yelpcdn.com/assets/2/www/img/f1def11e4e79/ico/stars/v1/stars_5.png
p1074
sVreview_count
p1075
I26
sVname
p1076
VInjoy Entertainment
p1077
sVrating_img_url_small
p1078
Vhttp://s3-media1.fl.yelpcdn.com/assets/2/www/img/c7623205d5cd/ico/stars/v1/stars_small_5.png
p1079
sVurl
p1080
Vhttp://www.yelp.com/biz/injoy-entertainment-seattle
p1081
sVis_closed
p1082
I00
sVphone
p1083
V2063108369
p1084
sVsnippet_text
p1085
VMy Wife and I recently got married in Seattle, WA and Injoy Entertainment did a spectacular job at our wedding.  Jason manages an outstanding business and...
p1086
sVimage_url
p1087
Vhttp://s3-media1.fl.yelpcdn.com/bphoto/1B-Drkbwcs6X11YttHIJ9g/ms.jpg
p1088
sVcategories
p1089
(lp1090
(lp1091
VDJs
p1092
aVdjs
p1093
aa(lp1094
VWedding Planning
p1095
aVwedding_planning
p1096
aa(lp1097
VParty Equipment Rentals
p1098
aVpartyequipmentrentals
p1099
aasVdisplay_phone
p1100
V+1-206-310-8369
p1101
sVrating_img_url_large
p1102
Vhttp://s3-media3.fl.yelpcdn.com/assets/2/www/img/22affc4e6c38/ico/stars/v1/stars_large_5.png
p1103
sVid
p1104
Vinjoy-entertainment-seattle
p1105
sVsnippet_image_url
p1106
Vhttp://s3-media4.fl.yelpcdn.com/assets/srv0/yelp_styleguide/cc4afe21892e/assets/img/default_avatars/user_medium_square.png
p1107
sVlocation
p1108
(dp1109
Vcross_streets
p1110
V24th St & Mercer Way
p1111
sVcity
p1112
VSeattle
p1113
sVdisplay_address
p1114
(lp1115
V2500 81st Ave SE
p1116
aVSte 312
p1117
aVSeattle, WA 98040
p1118
asVgeo_accuracy
p1119
F8.0
sVpostal_code
p1120
V98040
p1121
sVcountry_code
p1122
VUS
p1123
sVaddress
p1124
(lp1125
V2500 81st Ave SE
p1126
aVSte 312
p1127
asVcoordinate
p1128
(dp1129
Vlatitude
p1130
F47.588303
sVlongitude
p1131
F-122.230003
ssVstate_code
p1132
VWA
p1133
ssa(dp1134
Vis_claimed
p1135
I01
sVrating
p1136
F4.5
sVmobile_url
p1137
Vhttp://m.yelp.com/biz/art-of-the-table-seattle
p1138
sVrating_img_url
p1139
Vhttp://s3-media2.fl.yelpcdn.com/assets/2/www/img/99493c12711e/ico/stars/v1/stars_4_half.png
p1140
sVreview_count
p1141
I381
sVname
p1142
VArt of The Table
p1143
sVrating_img_url_small
p1144
Vhttp://s3-media2.fl.yelpcdn.com/assets/2/www/img/a5221e66bc70/ico/stars/v1/stars_small_4_half.png
p1145
sVurl
p1146
Vhttp://www.yelp.com/biz/art-of-the-table-seattle
p1147
sVis_closed
p1148
I00
sVphone
p1149
V2062820942
p1150
sVsnippet_text
p1151
VLet me first say that we've been to places that costs more and wasn't that great at all!  This review is way over due! I'm always bad at doing this when I...
p1152
sVimage_url
p1153
Vhttp://s3-media1.fl.yelpcdn.com/bphoto/clxiXai-R6kNNaiIf0CShg/ms.jpg
p1154
sVcategories
p1155
(lp1156
(lp1157
VAmerican (New)
p1158
aVnewamerican
p1159
aasVdisplay_phone
p1160
V+1-206-282-0942
p1161
sVrating_img_url_large
p1162
Vhttp://s3-media4.fl.yelpcdn.com/assets/2/www/img/9f83790ff7f6/ico/stars/v1/stars_large_4_half.png
p1163
sVid
p1164
Vart-of-the-table-seattle
p1165
sVsnippet_image_url
p1166
Vhttp://s3-media1.fl.yelpcdn.com/photo/PNN2VwEPrjVkdW9k0pV9Rg/ms.jpg
p1167
sVlocation
p1168
(dp1169
Vcross_streets
p1170
VN Woodland Park Ave
p1171
sVcity
p1172
VSeattle
p1173
sVdisplay_address
p1174
(lp1175
V1054 N 39th St
p1176
aVFremont
p1177
aVSeattle, WA 98103
p1178
asVgeo_accuracy
p1179
F9.5
sVneighborhoods
p1180
(lp1181
VFremont
p1182
asVpostal_code
p1183
V98103
p1184
sVcountry_code
p1185
VUS
p1186
sVaddress
p1187
(lp1188
V1054 N 39th St
p1189
asVcoordinate
p1190
(dp1191
Vlatitude
p1192
F47.654129
sVlongitude
p1193
F-122.344183
ssVstate_code
p1194
VWA
p1195
ssa(dp1196
Vis_claimed
p1197
I01
sVrating
p1198
F5.0
sVmobile_url
p1199
Vhttp://m.yelp.com/biz/crimson-haze-event-lighting-seattle
p1200
sVrating_img_url
p1201
Vhttp://s3-media1.fl.yelpcdn.com/assets/2/www/img/f1def11e4e79/ico/stars/v1/stars_5.png
p1202
sVreview_count
p1203
I11
sVname
p1204
VCrimson Haze Event Lighting
p1205
sVrating_img_url_small
p1206
Vhttp://s3-media1.fl.yelpcdn.com/assets/2/www/img/c7623205d5cd/ico/stars/v1/stars_small_5.png
p1207
sVurl
p1208
Vhttp://www.yelp.com/biz/crimson-haze-event-lighting-seattle
p1209
sVis_closed
p1210
I00
sVphone
p1211
V4259545451
p1212
sVsnippet_text
p1213
VCrimson Haze did the lighting at my wedding reception in Fred Wildlife Refuge, and it was DOPE! Bright enough for the old folks to get around, dim enough...
p1214
sVimage_url
p1215
Vhttp://s3-media3.fl.yelpcdn.com/bphoto/_O51ODUd22PhLS_-TM7H2A/ms.jpg
p1216
sVcategories
p1217
(lp1218
(lp1219
VParty & Event Planning
p1220
aVeventplanning
p1221
aa(lp1222
VLighting Fixtures & Equipment
p1223
aVlighting
p1224
aa(lp1225
VParty Equipment Rentals
p1226
aVpartyequipmentrentals
p1227
aasVdisplay_phone
p1228
V+1-425-954-5451
p1229
sVrating_img_url_large
p1230
Vhttp://s3-media3.fl.yelpcdn.com/assets/2/www/img/22affc4e6c38/ico/stars/v1/stars_large_5.png
p1231
sVid
p1232
Vcrimson-haze-event-lighting-seattle
p1233
sVsnippet_image_url
p1234
Vhttp://s3-media4.fl.yelpcdn.com/photo/qO_C1oSNOF-4jflJ4J3dHg/ms.jpg
p1235
sVlocation
p1236
(dp1237
Vcross_streets
p1238
V38th St & N Fremont Way
p1239
sVcity
p1240
VSeattle
p1241
sVdisplay_address
p1242
(lp1243
V3614 Linden Ave N
p1244
aVSte 214
p1245
aVFremont
p1246
aVSeattle, WA 98103
p1247
asVgeo_accuracy
p1248
F8.0
sVneighborhoods
p1249
(lp1250
VFremont
p1251
asVpostal_code
p1252
V98103
p1253
sVcountry_code
p1254
VUS
p1255
sVaddress
p1256
(lp1257
V3614 Linden Ave N
p1258
aVSte 214
p1259
asVcoordinate
p1260
(dp1261
Vlatitude
p1262
F47.6514876633883
sVlongitude
p1263
F-122.348565906286
ssVstate_code
p1264
VWA
p1265
ssa(dp1266
Vrating
p1267
F4.5
sVrating_img_url
p1268
Vhttp://s3-media2.fl.yelpcdn.com/assets/2/www/img/99493c12711e/ico/stars/v1/stars_4_half.png
p1269
sVdisplay_phone
p1270
V+1-206-402-3042
p1271
sVgift_certificates
p1272
(lp1273
(dp1274
Vurl
p1275
Vhttp://www.yelp.com/gift-certificates/lucid-seattle
p1276
sVunused_balances
p1277
VCREDIT
p1278
sVid
p1279
V6PkuZ5kIyvr08LHpdyKBSg
p1280
sVimage_url
p1281
Vhttp://s3-media4.fl.yelpcdn.com/bphoto/u6KI66Ictdc9Xoii1lmF7w/m.jpg
p1282
sVoptions
p1283
(lp1284
(dp1285
Vprice
p1286
I1000
sVformatted_price
p1287
V$10
p1288
sa(dp1289
Vprice
p1290
I2500
sVformatted_price
p1291
V$25
p1292
sa(dp1293
Vprice
p1294
I5000
sVformatted_price
p1295
V$50
p1296
sa(dp1297
Vprice
p1298
I7500
sVformatted_price
p1299
V$75
p1300
sa(dp1301
Vprice
p1302
I10000
sVformatted_price
p1303
V$100
p1304
sa(dp1305
Vprice
p1306
I15000
sVformatted_price
p1307
V$150
p1308
sasVcurrency_code
p1309
VUSD
p1310
sasVid
p1311
Vlucid-seattle
p1312
sVis_closed
p1313
I00
sVmobile_url
p1314
Vhttp://m.yelp.com/biz/lucid-seattle
p1315
sVreview_count
p1316
I84
sVcategories
p1317
(lp1318
(lp1319
VJazz & Blues
p1320
aVjazzandblues
p1321
aa(lp1322
VLounges
p1323
aVlounges
p1324
aasVlocation
p1325
(dp1326
Vcross_streets
p1327
V52nd St & 55th St
p1328
sVcity
p1329
VSeattle
p1330
sVdisplay_address
p1331
(lp1332
V5241 University Way NE
p1333
aVUniversity District
p1334
aVSeattle, WA 98105
p1335
asVgeo_accuracy
p1336
F9.5
sVneighborhoods
p1337
(lp1338
VUniversity District
p1339
asVpostal_code
p1340
V98105
p1341
sVcountry_code
p1342
VUS
p1343
sVaddress
p1344
(lp1345
V5241 University Way NE
p1346
asVcoordinate
p1347
(dp1348
Vlatitude
p1349
F47.667618
sVlongitude
p1350
F-122.3133294
ssVstate_code
p1351
VWA
p1352
ssVis_claimed
p1353
I01
sVrating_img_url_small
p1354
Vhttp://s3-media2.fl.yelpcdn.com/assets/2/www/img/a5221e66bc70/ico/stars/v1/stars_small_4_half.png
p1355
sVphone
p1356
V2064023042
p1357
sVsnippet_text
p1358
VLucid is an unexpectedly adult venue for being on the Ave. They host complicated drinks, live music and art. It takes a higher consciousness to truly...
p1359
sVrating_img_url_large
p1360
Vhttp://s3-media4.fl.yelpcdn.com/assets/2/www/img/9f83790ff7f6/ico/stars/v1/stars_large_4_half.png
p1361
sVsnippet_image_url
p1362
Vhttp://s3-media3.fl.yelpcdn.com/photo/WK8u5L2X_Rp2GwLymUWEkQ/ms.jpg
p1363
sVname
p1364
VLUCID
p1365
sVurl
p1366
Vhttp://www.yelp.com/biz/lucid-seattle
p1367
sVdeals
p1368
(lp1369
(dp1370
Vis_popular
p1371
I01
sVwhat_you_get
p1372
VYou get a voucher redeemable for $30 at LUCID.\u000aPrint out your voucher, or redeem on your phone with the <a href="http://www.yelp.com/yelpmobile">Yelp app</a>.
p1373
sVtime_start
p1374
I1415811162
sVtitle
p1375
V$20 for $30
p1376
sVurl
p1377
Vhttp://www.yelp.com/deals/lucid-seattle
p1378
sVadditional_restrictions
p1379
VPromotion lasts for 1 year from date of purchase. After that period, your voucher is redeemable for the amount you paid. Not valid with other vouchers, certificates, or offers. Must be 21 or older. Only 1 voucher(s) can be purchased and redeemed per person. Must use in a single visit. Up to 4 can be purchased as gifts for others. Must make appointment at least 24 hours in advance. Subject to the <a target="_blank" href="http://www.yelp.com/tos/general_b2c_us_20120911">General Terms</a>.
p1380
sVid
p1381
VJFay-Yrv_lPod2s9GuHj0A
p1382
sVimage_url
p1383
Vhttp://s3-media3.fl.yelpcdn.com/dphoto/Dj4-WhHakLW61hn-xCQbQw/m.jpg
p1384
sVoptions
p1385
(lp1386
(dp1387
Voriginal_price
p1388
I3000
sVtitle
p1389
V$20 for $30
p1390
sVprice
p1391
I2000
sVpurchase_url
p1392
Vhttps://www.yelp.com/checkout/deal/xHcWfZHYLT2S1gcC5CS1sQ
p1393
sVremaining_count
p1394
I37
sVformatted_original_price
p1395
V$30
p1396
sVformatted_price
p1397
V$20
p1398
sVis_quantity_limited
p1399
I01
sasVcurrency_code
p1400
VUSD
p1401
sasVimage_url
p1402
Vhttp://s3-media2.fl.yelpcdn.com/bphoto/Xb22YdIJOKMWjc3_q9KFVA/ms.jpg
p1403
sVmenu_provider
p1404
Vsingle_platform
p1405
sVmenu_date_updated
p1406
I1417841369
sa(dp1407
Vis_claimed
p1408
I01
sVrating
p1409
F4.5
sVmobile_url
p1410
Vhttp://m.yelp.com/biz/martinos-seattle
p1411
sVrating_img_url
p1412
Vhttp://s3-media2.fl.yelpcdn.com/assets/2/www/img/99493c12711e/ico/stars/v1/stars_4_half.png
p1413
sVreview_count
p1414
I87
sVname
p1415
VMartino's
p1416
sVrating_img_url_small
p1417
Vhttp://s3-media2.fl.yelpcdn.com/assets/2/www/img/a5221e66bc70/ico/stars/v1/stars_small_4_half.png
p1418
sVurl
p1419
Vhttp://www.yelp.com/biz/martinos-seattle
p1420
sVis_closed
p1421
I00
sVid
p1422
Vmartinos-seattle
p1423
sVphone
p1424
V2063974689
p1425
sVsnippet_text
p1426
VWhat can I say? This place is bomb! I don't always like to spend $11 bucks on a sandwich for lunch, but every time I come here its well worth it.  They...
p1427
sVimage_url
p1428
Vhttp://s3-media2.fl.yelpcdn.com/bphoto/gipcj0G-aCatPAeqoJ3MPg/ms.jpg
p1429
sVcategories
p1430
(lp1431
(lp1432
VAmerican (New)
p1433
aVnewamerican
p1434
aasVdisplay_phone
p1435
V+1-206-397-4689
p1436
sVrating_img_url_large
p1437
Vhttp://s3-media4.fl.yelpcdn.com/assets/2/www/img/9f83790ff7f6/ico/stars/v1/stars_large_4_half.png
p1438
sVmenu_provider
p1439
Vsingle_platform
p1440
sVmenu_date_updated
p1441
I1403230604
sVsnippet_image_url
p1442
Vhttp://s3-media2.fl.yelpcdn.com/photo/2rCKH4h5HRSqhRxd78hBJg/ms.jpg
p1443
sVlocation
p1444
(dp1445
Vcross_streets
p1446
V75th St & 74th St
p1447
sVcity
p1448
VSeattle
p1449
sVdisplay_address
p1450
(lp1451
V7410 Greenwood Ave
p1452
aVPhinney Ridge
p1453
aVSeattle, WA 98103
p1454
asVgeo_accuracy
p1455
F8.0
sVneighborhoods
p1456
(lp1457
VPhinney Ridge
p1458
asVpostal_code
p1459
V98103
p1460
sVcountry_code
p1461
VUS
p1462
sVaddress
p1463
(lp1464
V7410 Greenwood Ave
p1465
asVcoordinate
p1466
(dp1467
Vlatitude
p1468
F47.6827823370695
sVlongitude
p1469
F-122.355250641704
ssVstate_code
p1470
VWA
p1471
ssasba(ivenues
VenueType
p1472
(dp1473
g3
S'Gyms'
p1474
sg5
(lp1475
(dp1476
Vis_claimed
p1477
I01
sVrating
p1478
F5.0
sVmobile_url
p1479
Vhttp://m.yelp.com/biz/ianfitness-seattle
p1480
sVrating_img_url
p1481
Vhttp://s3-media1.fl.yelpcdn.com/assets/2/www/img/f1def11e4e79/ico/stars/v1/stars_5.png
p1482
sVreview_count
p1483
I44
sVname
p1484
VIanFitness
p1485
sVrating_img_url_small
p1486
Vhttp://s3-media1.fl.yelpcdn.com/assets/2/www/img/c7623205d5cd/ico/stars/v1/stars_small_5.png
p1487
sVurl
p1488
Vhttp://www.yelp.com/biz/ianfitness-seattle
p1489
sVis_closed
p1490
I00
sVid
p1491
Vianfitness-seattle
p1492
sVdeals
p1493
(lp1494
(dp1495
Vis_popular
p1496
I01
sVwhat_you_get
p1497
VYou get a voucher redeemable for $45 at IanFitness.\u000aPrint out your voucher, or redeem on your phone with the <a href="http://www.yelp.com/yelpmobile">Yelp app</a>.
p1498
sVtime_start
p1499
I1371586714
sVtitle
p1500
V$20 for $45
p1501
sVurl
p1502
Vhttp://www.yelp.com/deals/ianfitness-seattle
p1503
sVadditional_restrictions
p1504
VPromotion lasts for 1 year from date of purchase. After that period, your voucher is redeemable for the amount you paid, less any value you may have received. Not valid with other vouchers, certificates, or offers. All equipment provided. Only 1 voucher(s) can be purchased and redeemed per person. Up to 3 can be purchased as gifts for others. Must make appointment at least 24 hours in advance. Tax included. Subject to the <a target="_blank" href="http://www.yelp.com/tos/general_b2c_us_20120911">General Terms</a>.
p1505
sVid
p1506
VXcByZZeJgAi0iIYFWakv9g
p1507
sVimportant_restrictions
p1508
VNew customers only.
p1509
sVimage_url
p1510
Vhttp://s3-media2.fl.yelpcdn.com/dphoto/jU4yGPB1rU10KjQFtdojxQ/m.jpg
p1511
sVoptions
p1512
(lp1513
(dp1514
Voriginal_price
p1515
I4500
sVtitle
p1516
V$20 for $45
p1517
sVprice
p1518
I2000
sVpurchase_url
p1519
Vhttps://www.yelp.com/checkout/deal/o17c7gGTBc_-7DAqHFSf4g
p1520
sVformatted_original_price
p1521
V$45
p1522
sVformatted_price
p1523
V$20
p1524
sVis_quantity_limited
p1525
I00
sasVcurrency_code
p1526
VUSD
p1527
sasVphone
p1528
V2063490242
p1529
sVsnippet_text
p1530
VI was a competitive athlete for 15 years but fell out of a consistent workout routine after college.  I was introduced to Ian's 45-minute bootcamp classes...
p1531
sVimage_url
p1532
Vhttp://s3-media3.fl.yelpcdn.com/bphoto/sPqioRDQNHk3vFzgr9yxcw/ms.jpg
p1533
sVcategories
p1534
(lp1535
(lp1536
VTrainers
p1537
aVhealthtrainers
p1538
aa(lp1539
VBoot Camps
p1540
aVbootcamps
p1541
aa(lp1542
VGyms
p1543
aVgyms
p1544
aasVdisplay_phone
p1545
V+1-206-349-0242
p1546
sVrating_img_url_large
p1547
Vhttp://s3-media3.fl.yelpcdn.com/assets/2/www/img/22affc4e6c38/ico/stars/v1/stars_large_5.png
p1548
sVmenu_provider
p1549
Vsingle_platform
p1550
sVmenu_date_updated
p1551
I1404103892
sVsnippet_image_url
p1552
Vhttp://s3-media3.fl.yelpcdn.com/photo/mGq8kz1e-NG8SpANHfKpNw/ms.jpg
p1553
sVlocation
p1554
(dp1555
Vcross_streets
p1556
VDravus St & N Warren Ave
p1557
sVcity
p1558
VSeattle
p1559
sVdisplay_address
p1560
(lp1561
V101 Nickerson St
p1562
aVQueen Anne
p1563
aVSeattle, WA 98109
p1564
asVgeo_accuracy
p1565
F8.0
sVneighborhoods
p1566
(lp1567
VQueen Anne
p1568
asVpostal_code
p1569
V98109
p1570
sVcountry_code
p1571
VUS
p1572
sVaddress
p1573
(lp1574
V101 Nickerson St
p1575
asVcoordinate
p1576
(dp1577
Vlatitude
p1578
F47.648368
sVlongitude
p1579
F-122.355262
ssVstate_code
p1580
VWA
p1581
ssa(dp1582
Vis_claimed
p1583
I01
sVrating
p1584
F5.0
sVmobile_url
p1585
Vhttp://m.yelp.com/biz/shogun-fitness-seattle
p1586
sVrating_img_url
p1587
Vhttp://s3-media1.fl.yelpcdn.com/assets/2/www/img/f1def11e4e79/ico/stars/v1/stars_5.png
p1588
sVreview_count
p1589
I24
sVname
p1590
VShogun Fitness
p1591
sVrating_img_url_small
p1592
Vhttp://s3-media1.fl.yelpcdn.com/assets/2/www/img/c7623205d5cd/ico/stars/v1/stars_small_5.png
p1593
sVurl
p1594
Vhttp://www.yelp.com/biz/shogun-fitness-seattle
p1595
sVis_closed
p1596
I00
sVphone
p1597
V2068345056
p1598
sVsnippet_text
p1599
VTHIS GUY IS GREAT! \u000a\u000aJef will get you so EXCITED  about what your doing because he honestly cares about you and making your life AMAZING!\u000a\u000aFirst of all I...
p1600
sVimage_url
p1601
Vhttp://s3-media3.fl.yelpcdn.com/bphoto/qvQKrVBRhQbS3Qk45TPQCA/ms.jpg
p1602
sVcategories
p1603
(lp1604
(lp1605
VTrainers
p1606
aVhealthtrainers
p1607
aasVdisplay_phone
p1608
V+1-206-834-5056
p1609
sVrating_img_url_large
p1610
Vhttp://s3-media3.fl.yelpcdn.com/assets/2/www/img/22affc4e6c38/ico/stars/v1/stars_large_5.png
p1611
sVid
p1612
Vshogun-fitness-seattle
p1613
sVsnippet_image_url
p1614
Vhttp://s3-media2.fl.yelpcdn.com/photo/1hmN3QczBwZ_elT92pwY1A/ms.jpg
p1615
sVlocation
p1616
(dp1617
Vcross_streets
p1618
VCrockett St
p1619
sVcity
p1620
VSeattle
p1621
sVdisplay_address
p1622
(lp1623
V2040 Westlake Ave N
p1624
aVWestlake
p1625
aVSeattle, WA 98109
p1626
asVgeo_accuracy
p1627
F8.0
sVneighborhoods
p1628
(lp1629
VWestlake
p1630
asVpostal_code
p1631
V98109
p1632
sVcountry_code
p1633
VUS
p1634
sVaddress
p1635
(lp1636
V2040 Westlake Ave N
p1637
asVcoordinate
p1638
(dp1639
Vlatitude
p1640
F47.637383
sVlongitude
p1641
F-122.339661
ssVstate_code
p1642
VWA
p1643
ssa(dp1644
Vis_claimed
p1645
I01
sVrating
p1646
F5.0
sVmobile_url
p1647
Vhttp://m.yelp.com/biz/pure-barre-seattle
p1648
sVrating_img_url
p1649
Vhttp://s3-media1.fl.yelpcdn.com/assets/2/www/img/f1def11e4e79/ico/stars/v1/stars_5.png
p1650
sVreview_count
p1651
I35
sVname
p1652
VPure Barre
p1653
sVrating_img_url_small
p1654
Vhttp://s3-media1.fl.yelpcdn.com/assets/2/www/img/c7623205d5cd/ico/stars/v1/stars_small_5.png
p1655
sVurl
p1656
Vhttp://www.yelp.com/biz/pure-barre-seattle
p1657
sVis_closed
p1658
I00
sVphone
p1659
V2069357873
p1660
sVsnippet_text
p1661
VThis is one of the best workout regiments I have ever encountered. \u000a\u000aWhile targeting and toning problem areas with precise isometric movements and pulses as...
p1662
sVimage_url
p1663
Vhttp://s3-media4.fl.yelpcdn.com/bphoto/npip-SpABfErLFkBuFXefg/ms.jpg
p1664
sVcategories
p1665
(lp1666
(lp1667
VGyms
p1668
aVgyms
p1669
aa(lp1670
VBarre Classes
p1671
aVbarreclasses
p1672
aasVdisplay_phone
p1673
V+1-206-935-7873
p1674
sVrating_img_url_large
p1675
Vhttp://s3-media3.fl.yelpcdn.com/assets/2/www/img/22affc4e6c38/ico/stars/v1/stars_large_5.png
p1676
sVid
p1677
Vpure-barre-seattle
p1678
sVsnippet_image_url
p1679
Vhttp://s3-media3.fl.yelpcdn.com/photo/EJSyGhgf_0M8cJXaGx_uOw/ms.jpg
p1680
sVlocation
p1681
(dp1682
Vcross_streets
p1683
V49th St & Blakeley St
p1684
sVcity
p1685
VSeattle
p1686
sVdisplay_address
p1687
(lp1688
V5001 25th Ave NE
p1689
aVSte 102
p1690
aVUniversity District
p1691
aVSeattle, WA 98105
p1692
asVgeo_accuracy
p1693
F8.0
sVneighborhoods
p1694
(lp1695
VUniversity District
p1696
asVpostal_code
p1697
V98105
p1698
sVcountry_code
p1699
VUS
p1700
sVaddress
p1701
(lp1702
V5001 25th Ave NE
p1703
aVSte 102
p1704
asVcoordinate
p1705
(dp1706
Vlatitude
p1707
F47.665131
sVlongitude
p1708
F-122.30117
ssVstate_code
p1709
VWA
p1710
ssa(dp1711
Vis_claimed
p1712
I00
sVrating
p1713
F5.0
sVmobile_url
p1714
Vhttp://m.yelp.com/biz/howe-street-stairs-seattle
p1715
sVrating_img_url
p1716
Vhttp://s3-media1.fl.yelpcdn.com/assets/2/www/img/f1def11e4e79/ico/stars/v1/stars_5.png
p1717
sVreview_count
p1718
I14
sVname
p1719
VHowe Street Stairs
p1720
sVrating_img_url_small
p1721
Vhttp://s3-media1.fl.yelpcdn.com/assets/2/www/img/c7623205d5cd/ico/stars/v1/stars_small_5.png
p1722
sVurl
p1723
Vhttp://www.yelp.com/biz/howe-street-stairs-seattle
p1724
sVis_closed
p1725
I00
sVsnippet_text
p1726
VI mean, the five stars I'm giving this are really five stars of WANTING TO DIE. Not, like, five stars of super fun awesome times or anything.\u000a\u000aThese stairs...
p1727
sVimage_url
p1728
Vhttp://s3-media3.fl.yelpcdn.com/bphoto/bkYOP1vRwmL5DGrtNz6Vww/ms.jpg
p1729
sVcategories
p1730
(lp1731
(lp1732
VGyms
p1733
aVgyms
p1734
aasVrating_img_url_large
p1735
Vhttp://s3-media3.fl.yelpcdn.com/assets/2/www/img/22affc4e6c38/ico/stars/v1/stars_large_5.png
p1736
sVid
p1737
Vhowe-street-stairs-seattle
p1738
sVsnippet_image_url
p1739
Vhttp://s3-media1.fl.yelpcdn.com/photo/SJQMjAVkr_6QAQl6iZEn6A/ms.jpg
p1740
sVlocation
p1741
(dp1742
Vcross_streets
p1743
VE Lakeview Blvd & E Broadway
p1744
sVcity
p1745
VSeattle
p1746
sVdisplay_address
p1747
(lp1748
V810 E Howe St
p1749
aVCapitol Hill
p1750
aVSeattle, WA 98102
p1751
asVgeo_accuracy
p1752
F8.0
sVneighborhoods
p1753
(lp1754
VCapitol Hill
p1755
asVpostal_code
p1756
V98102
p1757
sVcountry_code
p1758
VUS
p1759
sVaddress
p1760
(lp1761
V810 E Howe St
p1762
asVcoordinate
p1763
(dp1764
Vlatitude
p1765
F47.6360664
sVlongitude
p1766
F-122.3221817
ssVstate_code
p1767
VWA
p1768
ssa(dp1769
Vis_claimed
p1770
I00
sVrating
p1771
F5.0
sVmobile_url
p1772
Vhttp://m.yelp.com/biz/pure-barre-seattle-5
p1773
sVrating_img_url
p1774
Vhttp://s3-media1.fl.yelpcdn.com/assets/2/www/img/f1def11e4e79/ico/stars/v1/stars_5.png
p1775
sVreview_count
p1776
I33
sVname
p1777
VPure Barre
p1778
sVrating_img_url_small
p1779
Vhttp://s3-media1.fl.yelpcdn.com/assets/2/www/img/c7623205d5cd/ico/stars/v1/stars_small_5.png
p1780
sVurl
p1781
Vhttp://www.yelp.com/biz/pure-barre-seattle-5
p1782
sVis_closed
p1783
I00
sVphone
p1784
V2064201667
p1785
sVsnippet_text
p1786
VLove this place! I've been coming to class for about 3 weeks and already see a difference. My 'seat' is lifted and my tummy is far more toned. Each...
p1787
sVimage_url
p1788
Vhttp://s3-media2.fl.yelpcdn.com/bphoto/YZj9sS4V0ZJ8CZ1PvIYsow/ms.jpg
p1789
sVcategories
p1790
(lp1791
(lp1792
VBarre Classes
p1793
aVbarreclasses
p1794
aa(lp1795
VGyms
p1796
aVgyms
p1797
aasVdisplay_phone
p1798
V+1-206-420-1667
p1799
sVrating_img_url_large
p1800
Vhttp://s3-media3.fl.yelpcdn.com/assets/2/www/img/22affc4e6c38/ico/stars/v1/stars_large_5.png
p1801
sVid
p1802
Vpure-barre-seattle-5
p1803
sVsnippet_image_url
p1804
Vhttp://s3-media1.fl.yelpcdn.com/photo/wfqfFY5I-8wPH9AI2TDgZA/ms.jpg
p1805
sVlocation
p1806
(dp1807
Vcross_streets
p1808
VN 5th Ave & N Woodlawn Ave
p1809
sVcity
p1810
VSeattle
p1811
sVdisplay_address
p1812
(lp1813
V406 NE 71st St
p1814
aVGreenlake
p1815
aVSeattle, WA 98115
p1816
asVgeo_accuracy
p1817
F9.5
sVneighborhoods
p1818
(lp1819
VGreenlake
p1820
asVpostal_code
p1821
V98115
p1822
sVcountry_code
p1823
VUS
p1824
sVaddress
p1825
(lp1826
V406 NE 71st St
p1827
asVcoordinate
p1828
(dp1829
Vlatitude
p1830
F47.6798471
sVlongitude
p1831
F-122.3244267
ssVstate_code
p1832
VWA
p1833
ssasba(ivenues
VenueType
p1834
(dp1835
g3
S'Parks'
p1836
sg5
(lp1837
(dp1838
Vis_claimed
p1839
I00
sVrating
p1840
F4.5
sVmobile_url
p1841
Vhttp://m.yelp.com/biz/washington-park-arboretum-seattle-2
p1842
sVrating_img_url
p1843
Vhttp://s3-media2.fl.yelpcdn.com/assets/2/www/img/99493c12711e/ico/stars/v1/stars_4_half.png
p1844
sVreview_count
p1845
I130
sVname
p1846
VWashington Park Arboretum
p1847
sVrating_img_url_small
p1848
Vhttp://s3-media2.fl.yelpcdn.com/assets/2/www/img/a5221e66bc70/ico/stars/v1/stars_small_4_half.png
p1849
sVurl
p1850
Vhttp://www.yelp.com/biz/washington-park-arboretum-seattle-2
p1851
sVis_closed
p1852
I00
sVphone
p1853
V2065438800
p1854
sVsnippet_text
p1855
VWent in October during our visit. We couldn't stay long because we had show tickets, but it was so beautiful in the fall! The vibrant colors were...
p1856
sVimage_url
p1857
Vhttp://s3-media2.fl.yelpcdn.com/bphoto/A1j2ScLlgauQI8ksWSOrjg/ms.jpg
p1858
sVcategories
p1859
(lp1860
(lp1861
VParks
p1862
aVparks
p1863
aasVdisplay_phone
p1864
V+1-206-543-8800
p1865
sVrating_img_url_large
p1866
Vhttp://s3-media4.fl.yelpcdn.com/assets/2/www/img/9f83790ff7f6/ico/stars/v1/stars_large_4_half.png
p1867
sVid
p1868
Vwashington-park-arboretum-seattle-2
p1869
sVsnippet_image_url
p1870
Vhttp://s3-media2.fl.yelpcdn.com/photo/N62mLED32qxJap9_VmX_3w/ms.jpg
p1871
sVlocation
p1872
(dp1873
Vcity
p1874
VSeattle
p1875
sVdisplay_address
p1876
(lp1877
V2300 Arboretum Dr E
p1878
aVWashington Park
p1879
aVSeattle, WA 98112
p1880
asVgeo_accuracy
p1881
F8.0
sVneighborhoods
p1882
(lp1883
VWashington Park
p1884
asVpostal_code
p1885
V98112
p1886
sVcountry_code
p1887
VUS
p1888
sVaddress
p1889
(lp1890
V2300 Arboretum Dr E
p1891
asVcoordinate
p1892
(dp1893
Vlatitude
p1894
F47.6379988342524
sVlongitude
p1895
F-122.294075489044
ssVstate_code
p1896
VWA
p1897
ssa(dp1898
Vis_claimed
p1899
I00
sVrating
p1900
F4.5
sVmobile_url
p1901
Vhttp://m.yelp.com/biz/kerry-park-seattle
p1902
sVrating_img_url
p1903
Vhttp://s3-media2.fl.yelpcdn.com/assets/2/www/img/99493c12711e/ico/stars/v1/stars_4_half.png
p1904
sVreview_count
p1905
I487
sVname
p1906
VKerry Park
p1907
sVrating_img_url_small
p1908
Vhttp://s3-media2.fl.yelpcdn.com/assets/2/www/img/a5221e66bc70/ico/stars/v1/stars_small_4_half.png
p1909
sVurl
p1910
Vhttp://www.yelp.com/biz/kerry-park-seattle
p1911
sVis_closed
p1912
I00
sVphone
p1913
V2066844075
p1914
sVsnippet_text
p1915
VBeautiful, romantical, inspiring. Classic Seattle. What else is there to say?  \u000a\u000aBreathtaking views of Seattle and the Sound day or night. It's a great spot...
p1916
sVimage_url
p1917
Vhttp://s3-media2.fl.yelpcdn.com/bphoto/sj2Y2Ix32n-f4yMwFaB3tw/ms.jpg
p1918
sVcategories
p1919
(lp1920
(lp1921
VParks
p1922
aVparks
p1923
aa(lp1924
VPlaygrounds
p1925
aVplaygrounds
p1926
aasVdisplay_phone
p1927
V+1-206-684-4075
p1928
sVrating_img_url_large
p1929
Vhttp://s3-media4.fl.yelpcdn.com/assets/2/www/img/9f83790ff7f6/ico/stars/v1/stars_large_4_half.png
p1930
sVid
p1931
Vkerry-park-seattle
p1932
sVsnippet_image_url
p1933
Vhttp://s3-media4.fl.yelpcdn.com/photo/MSb0nJxJkZKSjBQSlBbdyw/ms.jpg
p1934
sVlocation
p1935
(dp1936
Vcity
p1937
VSeattle
p1938
sVdisplay_address
p1939
(lp1940
V211 W Highland Dr
p1941
aVLower Queen Anne
p1942
aVSeattle, WA 98127
p1943
asVgeo_accuracy
p1944
F8.0
sVneighborhoods
p1945
(lp1946
VLower Queen Anne
p1947
asVpostal_code
p1948
V98127
p1949
sVcountry_code
p1950
VUS
p1951
sVaddress
p1952
(lp1953
V211 W Highland Dr
p1954
asVcoordinate
p1955
(dp1956
Vlatitude
p1957
F47.6295290887356
sVlongitude
p1958
F-122.359552904963
ssVstate_code
p1959
VWA
p1960
ssa(dp1961
Vis_claimed
p1962
I00
sVrating
p1963
F5.0
sVmobile_url
p1964
Vhttp://m.yelp.com/biz/meridian-playground-seattle
p1965
sVrating_img_url
p1966
Vhttp://s3-media1.fl.yelpcdn.com/assets/2/www/img/f1def11e4e79/ico/stars/v1/stars_5.png
p1967
sVreview_count
p1968
I24
sVname
p1969
VMeridian Playground
p1970
sVrating_img_url_small
p1971
Vhttp://s3-media1.fl.yelpcdn.com/assets/2/www/img/c7623205d5cd/ico/stars/v1/stars_small_5.png
p1972
sVurl
p1973
Vhttp://www.yelp.com/biz/meridian-playground-seattle
p1974
sVis_closed
p1975
I00
sVphone
p1976
V2066844075
p1977
sVsnippet_text
p1978
VThis is such a nice park, and I'm so lucky to have lived close to it. Even luckier that I was in its vicinity during the 65th Annual Wallingford Family...
p1979
sVimage_url
p1980
Vhttp://s3-media1.fl.yelpcdn.com/bphoto/nlCCNmEmH2eUPu9PZQpSpw/ms.jpg
p1981
sVcategories
p1982
(lp1983
(lp1984
VParks
p1985
aVparks
p1986
aa(lp1987
VPlaygrounds
p1988
aVplaygrounds
p1989
aasVdisplay_phone
p1990
V+1-206-684-4075
p1991
sVrating_img_url_large
p1992
Vhttp://s3-media3.fl.yelpcdn.com/assets/2/www/img/22affc4e6c38/ico/stars/v1/stars_large_5.png
p1993
sVid
p1994
Vmeridian-playground-seattle
p1995
sVsnippet_image_url
p1996
Vhttp://s3-media1.fl.yelpcdn.com/photo/7LENS_pacTAzOSS-osn-Ow/ms.jpg
p1997
sVlocation
p1998
(dp1999
Vcross_streets
p2000
V46th St
p2001
sVcity
p2002
VSeattle
p2003
sVdisplay_address
p2004
(lp2005
V4649 Sunnyside Ave N
p2006
aVWallingford
p2007
aVSeattle, WA 98103
p2008
asVgeo_accuracy
p2009
F8.0
sVneighborhoods
p2010
(lp2011
VWallingford
p2012
asVpostal_code
p2013
V98103
p2014
sVcountry_code
p2015
VUS
p2016
sVaddress
p2017
(lp2018
V4649 Sunnyside Ave N
p2019
asVcoordinate
p2020
(dp2021
Vlatitude
p2022
F47.6645627617836
sVlongitude
p2023
F-122.330358400941
ssVstate_code
p2024
VWA
p2025
ssa(dp2026
Vis_claimed
p2027
I00
sVrating
p2028
F4.5
sVmobile_url
p2029
Vhttp://m.yelp.com/biz/woodland-park-seattle
p2030
sVrating_img_url
p2031
Vhttp://s3-media2.fl.yelpcdn.com/assets/2/www/img/99493c12711e/ico/stars/v1/stars_4_half.png
p2032
sVreview_count
p2033
I25
sVname
p2034
VWoodland Park
p2035
sVrating_img_url_small
p2036
Vhttp://s3-media2.fl.yelpcdn.com/assets/2/www/img/a5221e66bc70/ico/stars/v1/stars_small_4_half.png
p2037
sVurl
p2038
Vhttp://www.yelp.com/biz/woodland-park-seattle
p2039
sVis_closed
p2040
I00
sVphone
p2041
V2066844075
p2042
sVsnippet_text
p2043
VWhat an amazing park for dogs and their humans! Wow! Off leash walking thru a forest in the middle of the city - unbelievable!
p2044
sVimage_url
p2045
Vhttp://s3-media2.fl.yelpcdn.com/bphoto/1HG1okhrYNTkywt38HJ-OQ/ms.jpg
p2046
sVcategories
p2047
(lp2048
(lp2049
VParks
p2050
aVparks
p2051
aa(lp2052
VPlaygrounds
p2053
aVplaygrounds
p2054
aasVdisplay_phone
p2055
V+1-206-684-4075
p2056
sVrating_img_url_large
p2057
Vhttp://s3-media4.fl.yelpcdn.com/assets/2/www/img/9f83790ff7f6/ico/stars/v1/stars_large_4_half.png
p2058
sVid
p2059
Vwoodland-park-seattle
p2060
sVsnippet_image_url
p2061
Vhttp://s3-media1.fl.yelpcdn.com/photo/XzQH7Igd1zy8Qg3l4JJGSA/ms.jpg
p2062
sVlocation
p2063
(dp2064
Vcross_streets
p2065
VN Woodland Park Ave & N Whitman Ave
p2066
sVcity
p2067
VSeattle
p2068
sVdisplay_address
p2069
(lp2070
V1000 N 50th St
p2071
aVPhinney Ridge
p2072
aVSeattle, WA 98103
p2073
asVgeo_accuracy
p2074
F8.0
sVneighborhoods
p2075
(lp2076
VPhinney Ridge
p2077
asVpostal_code
p2078
V98103
p2079
sVcountry_code
p2080
VUS
p2081
sVaddress
p2082
(lp2083
V1000 N 50th St
p2084
asVcoordinate
p2085
(dp2086
Vlatitude
p2087
F47.665184
sVlongitude
p2088
F-122.3458099
ssVstate_code
p2089
VWA
p2090
ssa(dp2091
Vis_claimed
p2092
I00
sVrating
p2093
F4.5
sVmobile_url
p2094
Vhttp://m.yelp.com/biz/green-lake-park-seattle
p2095
sVrating_img_url
p2096
Vhttp://s3-media2.fl.yelpcdn.com/assets/2/www/img/99493c12711e/ico/stars/v1/stars_4_half.png
p2097
sVreview_count
p2098
I331
sVname
p2099
VGreen Lake Park
p2100
sVrating_img_url_small
p2101
Vhttp://s3-media2.fl.yelpcdn.com/assets/2/www/img/a5221e66bc70/ico/stars/v1/stars_small_4_half.png
p2102
sVurl
p2103
Vhttp://www.yelp.com/biz/green-lake-park-seattle
p2104
sVis_closed
p2105
I00
sVphone
p2106
V2066844075
p2107
sVsnippet_text
p2108
VThis is the trail I take when I need inspiration, when I need to clear my mind,  when I need to make important decisions in my life, or when I just need to...
p2109
sVimage_url
p2110
Vhttp://s3-media2.fl.yelpcdn.com/bphoto/XVmtFEMTvlo4CpwSeve9dw/ms.jpg
p2111
sVcategories
p2112
(lp2113
(lp2114
VParks
p2115
aVparks
p2116
aa(lp2117
VLakes
p2118
aVlakes
p2119
aasVdisplay_phone
p2120
V+1-206-684-4075
p2121
sVrating_img_url_large
p2122
Vhttp://s3-media4.fl.yelpcdn.com/assets/2/www/img/9f83790ff7f6/ico/stars/v1/stars_large_4_half.png
p2123
sVid
p2124
Vgreen-lake-park-seattle
p2125
sVsnippet_image_url
p2126
Vhttp://s3-media4.fl.yelpcdn.com/photo/S-k8FFL-HZ8WgQPfniCXCw/ms.jpg
p2127
sVlocation
p2128
(dp2129
Vcross_streets
p2130
VN Aurora Ave & N Stone Ave
p2131
sVcity
p2132
VSeattle
p2133
sVdisplay_address
p2134
(lp2135
V7201 E Green Lake Dr N
p2136
aVGreenlake
p2137
aVSeattle, WA 98103
p2138
asVgeo_accuracy
p2139
F9.5
sVneighborhoods
p2140
(lp2141
VGreenlake
p2142
asVpostal_code
p2143
V98103
p2144
sVcountry_code
p2145
VUS
p2146
sVaddress
p2147
(lp2148
V7201 E Green Lake Dr N
p2149
asVcoordinate
p2150
(dp2151
Vlatitude
p2152
F47.6806660650906
sVlongitude
p2153
F-122.328855806324
ssVstate_code
p2154
VWA
p2155
ssasba(ivenues
VenueType
p2156
(dp2157
g3
S'Theaters'
p2158
sg5
(lp2159
(dp2160
Vis_claimed
p2161
I01
sVrating
p2162
F4.5
sVmobile_url
p2163
Vhttp://m.yelp.com/biz/seattle-opera-seattle
p2164
sVrating_img_url
p2165
Vhttp://s3-media2.fl.yelpcdn.com/assets/2/www/img/99493c12711e/ico/stars/v1/stars_4_half.png
p2166
sVreview_count
p2167
I34
sVname
p2168
VSeattle Opera
p2169
sVrating_img_url_small
p2170
Vhttp://s3-media2.fl.yelpcdn.com/assets/2/www/img/a5221e66bc70/ico/stars/v1/stars_small_4_half.png
p2171
sVurl
p2172
Vhttp://www.yelp.com/biz/seattle-opera-seattle
p2173
sVis_closed
p2174
I00
sVphone
p2175
V2063897676
p2176
sVsnippet_text
p2177
VMy family loves everything about Seattle Opera.  It is not just a "show" - it's an experience.  The location, McCall Hall is wonderful and I have yet to...
p2178
sVimage_url
p2179
Vhttp://s3-media2.fl.yelpcdn.com/bphoto/Qssjr0Uq95fYcLlXLp75cA/ms.jpg
p2180
sVcategories
p2181
(lp2182
(lp2183
VPerforming Arts
p2184
aVtheater
p2185
aa(lp2186
VOpera & Ballet
p2187
aVopera
p2188
aasVdisplay_phone
p2189
V+1-206-389-7676
p2190
sVrating_img_url_large
p2191
Vhttp://s3-media4.fl.yelpcdn.com/assets/2/www/img/9f83790ff7f6/ico/stars/v1/stars_large_4_half.png
p2192
sVid
p2193
Vseattle-opera-seattle
p2194
sVsnippet_image_url
p2195
Vhttp://s3-media4.fl.yelpcdn.com/assets/srv0/yelp_styleguide/cc4afe21892e/assets/img/default_avatars/user_medium_square.png
p2196
sVlocation
p2197
(dp2198
Vcross_streets
p2199
VN 4th Ave & N 3rd Ave
p2200
sVcity
p2201
VSeattle
p2202
sVdisplay_address
p2203
(lp2204
V321 Mercer St
p2205
aVLower Queen Anne
p2206
aVSeattle, WA 98109
p2207
asVgeo_accuracy
p2208
F9.5
sVneighborhoods
p2209
(lp2210
VLower Queen Anne
p2211
asVpostal_code
p2212
V98109
p2213
sVcountry_code
p2214
VUS
p2215
sVaddress
p2216
(lp2217
V321 Mercer St
p2218
asVcoordinate
p2219
(dp2220
Vlatitude
p2221
F47.624244
sVlongitude
p2222
F-122.350234
ssVstate_code
p2223
VWA
p2224
ssa(dp2225
Vis_claimed
p2226
I01
sVrating
p2227
F4.5
sVmobile_url
p2228
Vhttp://m.yelp.com/biz/taproot-theatre-company-seattle
p2229
sVrating_img_url
p2230
Vhttp://s3-media2.fl.yelpcdn.com/assets/2/www/img/99493c12711e/ico/stars/v1/stars_4_half.png
p2231
sVreview_count
p2232
I24
sVname
p2233
VTaproot Theatre Company
p2234
sVrating_img_url_small
p2235
Vhttp://s3-media2.fl.yelpcdn.com/assets/2/www/img/a5221e66bc70/ico/stars/v1/stars_small_4_half.png
p2236
sVurl
p2237
Vhttp://www.yelp.com/biz/taproot-theatre-company-seattle
p2238
sVis_closed
p2239
I00
sVphone
p2240
V2067819707
p2241
sVsnippet_text
p2242
VThis theater is a little gem; I almost hate to give the secret away! I have been watching plays here since 2005 and have yet to be disappointed with...
p2243
sVimage_url
p2244
Vhttp://s3-media3.fl.yelpcdn.com/bphoto/40PwURyJVHiEJipNjNhtUw/ms.jpg
p2245
sVcategories
p2246
(lp2247
(lp2248
VPerforming Arts
p2249
aVtheater
p2250
aasVdisplay_phone
p2251
V+1-206-781-9707
p2252
sVrating_img_url_large
p2253
Vhttp://s3-media4.fl.yelpcdn.com/assets/2/www/img/9f83790ff7f6/ico/stars/v1/stars_large_4_half.png
p2254
sVid
p2255
Vtaproot-theatre-company-seattle
p2256
sVsnippet_image_url
p2257
Vhttp://s3-media1.fl.yelpcdn.com/photo/b1ElHlj0XUIQF46jtKWs_A/ms.jpg
p2258
sVlocation
p2259
(dp2260
Vcity
p2261
VSeattle
p2262
sVdisplay_address
p2263
(lp2264
V204 N 85th St
p2265
aVGreenwood
p2266
aVSeattle, WA 98103
p2267
asVgeo_accuracy
p2268
F8.0
sVneighborhoods
p2269
(lp2270
VGreenwood
p2271
asVpostal_code
p2272
V98103
p2273
sVcountry_code
p2274
VUS
p2275
sVaddress
p2276
(lp2277
V204 N 85th St
p2278
asVcoordinate
p2279
(dp2280
Vlatitude
p2281
F47.690834
sVlongitude
p2282
F-122.35627
ssVstate_code
p2283
VWA
p2284
ssa(dp2285
Vis_claimed
p2286
I01
sVrating
p2287
F4.5
sVmobile_url
p2288
Vhttp://m.yelp.com/biz/the-grand-illusion-cinema-seattle
p2289
sVrating_img_url
p2290
Vhttp://s3-media2.fl.yelpcdn.com/assets/2/www/img/99493c12711e/ico/stars/v1/stars_4_half.png
p2291
sVreview_count
p2292
I43
sVname
p2293
VThe Grand Illusion Cinema
p2294
sVrating_img_url_small
p2295
Vhttp://s3-media2.fl.yelpcdn.com/assets/2/www/img/a5221e66bc70/ico/stars/v1/stars_small_4_half.png
p2296
sVurl
p2297
Vhttp://www.yelp.com/biz/the-grand-illusion-cinema-seattle
p2298
sVis_closed
p2299
I00
sVphone
p2300
V2065233935
p2301
sVsnippet_text
p2302
VI love this place so much! The first time I came here was to see a showing of one of my all-time favorite movies, What's Eating Gilbert Grape. It was...
p2303
sVimage_url
p2304
Vhttp://s3-media2.fl.yelpcdn.com/bphoto/4oXhBUg_nLEPNmUSA--xGA/ms.jpg
p2305
sVcategories
p2306
(lp2307
(lp2308
VCinema
p2309
aVmovietheaters
p2310
aasVdisplay_phone
p2311
V+1-206-523-3935
p2312
sVrating_img_url_large
p2313
Vhttp://s3-media4.fl.yelpcdn.com/assets/2/www/img/9f83790ff7f6/ico/stars/v1/stars_large_4_half.png
p2314
sVid
p2315
Vthe-grand-illusion-cinema-seattle
p2316
sVsnippet_image_url
p2317
Vhttp://s3-media2.fl.yelpcdn.com/photo/CQELpzPCDbK7m4pzE38Yhw/ms.jpg
p2318
sVlocation
p2319
(dp2320
Vcity
p2321
VSeattle
p2322
sVdisplay_address
p2323
(lp2324
V1403 NE 50th St
p2325
aVUniversity District
p2326
aVSeattle, WA 98105
p2327
asVgeo_accuracy
p2328
F8.0
sVneighborhoods
p2329
(lp2330
VUniversity District
p2331
asVpostal_code
p2332
V98105
p2333
sVcountry_code
p2334
VUS
p2335
sVaddress
p2336
(lp2337
V1403 NE 50th St
p2338
asVcoordinate
p2339
(dp2340
Vlatitude
p2341
F47.6648410409689
sVlongitude
p2342
F-122.312855646014
ssVstate_code
p2343
VWA
p2344
ssa(dp2345
Vis_claimed
p2346
I01
sVrating
p2347
F4.5
sVmobile_url
p2348
Vhttp://m.yelp.com/biz/jet-city-improv-seattle-2
p2349
sVrating_img_url
p2350
Vhttp://s3-media2.fl.yelpcdn.com/assets/2/www/img/99493c12711e/ico/stars/v1/stars_4_half.png
p2351
sVreview_count
p2352
I64
sVname
p2353
VJet City Improv
p2354
sVrating_img_url_small
p2355
Vhttp://s3-media2.fl.yelpcdn.com/assets/2/www/img/a5221e66bc70/ico/stars/v1/stars_small_4_half.png
p2356
sVurl
p2357
Vhttp://www.yelp.com/biz/jet-city-improv-seattle-2
p2358
sVis_closed
p2359
I00
sVphone
p2360
V2063528291
p2361
sVsnippet_text
p2362
VI'm rating just the Jet City Improv performance, and not any classes or that type of thing.\u000a\u000aFor $15, the improv shows at Jet City are a great and...
p2363
sVimage_url
p2364
Vhttp://s3-media3.fl.yelpcdn.com/bphoto/Z7Pi8PIqs9IYaokBan4DWA/ms.jpg
p2365
sVcategories
p2366
(lp2367
(lp2368
VPerforming Arts
p2369
aVtheater
p2370
aa(lp2371
VComedy Clubs
p2372
aVcomedyclubs
p2373
aa(lp2374
VVenues & Event Spaces
p2375
aVvenues
p2376
aasVdisplay_phone
p2377
V+1-206-352-8291
p2378
sVrating_img_url_large
p2379
Vhttp://s3-media4.fl.yelpcdn.com/assets/2/www/img/9f83790ff7f6/ico/stars/v1/stars_large_4_half.png
p2380
sVid
p2381
Vjet-city-improv-seattle-2
p2382
sVsnippet_image_url
p2383
Vhttp://s3-media4.fl.yelpcdn.com/photo/rbBFvpQPYx76ZqyyRkaUQA/ms.jpg
p2384
sVlocation
p2385
(dp2386
Vcross_streets
p2387
V55th St & 56th St
p2388
sVcity
p2389
VSeattle
p2390
sVdisplay_address
p2391
(lp2392
V5510 University Way NE
p2393
aVUniversity District
p2394
aVSeattle, WA 98105
p2395
asVgeo_accuracy
p2396
F9.5
sVneighborhoods
p2397
(lp2398
VUniversity District
p2399
asVpostal_code
p2400
V98105
p2401
sVcountry_code
p2402
VUS
p2403
sVaddress
p2404
(lp2405
V5510 University Way NE
p2406
asVcoordinate
p2407
(dp2408
Vlatitude
p2409
F47.6688416
sVlongitude
p2410
F-122.3128739
ssVstate_code
p2411
VWA
p2412
ssa(dp2413
Vis_claimed
p2414
I01
sVrating
p2415
F4.0
sVmobile_url
p2416
Vhttp://m.yelp.com/biz/pacific-northwest-ballet-seattle
p2417
sVrating_img_url
p2418
Vhttp://s3-media4.fl.yelpcdn.com/assets/2/www/img/c2f3dd9799a5/ico/stars/v1/stars_4.png
p2419
sVreview_count
p2420
I62
sVname
p2421
VPacific Northwest Ballet
p2422
sVrating_img_url_small
p2423
Vhttp://s3-media4.fl.yelpcdn.com/assets/2/www/img/f62a5be2f902/ico/stars/v1/stars_small_4.png
p2424
sVurl
p2425
Vhttp://www.yelp.com/biz/pacific-northwest-ballet-seattle
p2426
sVis_closed
p2427
I00
sVphone
p2428
V2064412424
p2429
sVsnippet_text
p2430
VAmazing! Venue is gorgeous. The staff let us preorder drinks for intermission and had them waiting on a table when we came out! It was also a rainy night so...
p2431
sVimage_url
p2432
Vhttp://s3-media1.fl.yelpcdn.com/bphoto/8Kc33i5oVOUVT4gh7jSw0Q/ms.jpg
p2433
sVcategories
p2434
(lp2435
(lp2436
VPerforming Arts
p2437
aVtheater
p2438
aa(lp2439
VOpera & Ballet
p2440
aVopera
p2441
aasVdisplay_phone
p2442
V+1-206-441-2424
p2443
sVrating_img_url_large
p2444
Vhttp://s3-media2.fl.yelpcdn.com/assets/2/www/img/ccf2b76faa2c/ico/stars/v1/stars_large_4.png
p2445
sVid
p2446
Vpacific-northwest-ballet-seattle
p2447
sVsnippet_image_url
p2448
Vhttp://s3-media4.fl.yelpcdn.com/photo/FxT8h0suEtjP65Tur1g5Xg/ms.jpg
p2449
sVlocation
p2450
(dp2451
Vcity
p2452
VSeattle
p2453
sVdisplay_address
p2454
(lp2455
V301 Mercer St
p2456
aVLower Queen Anne
p2457
aVSeattle, WA 98109
p2458
asVgeo_accuracy
p2459
F9.5
sVneighborhoods
p2460
(lp2461
VLower Queen Anne
p2462
asVpostal_code
p2463
V98109
p2464
sVcountry_code
p2465
VUS
p2466
sVaddress
p2467
(lp2468
V301 Mercer St
p2469
asVcoordinate
p2470
(dp2471
Vlatitude
p2472
F47.624321907778004
sVlongitude
p2473
F-122.35156257971
ssVstate_code
p2474
VWA
p2475
ssasba(ivenues
VenueType
p2476
(dp2477
g3
S'Markets'
p2478
sg5
(lp2479
(dp2480
Vis_claimed
p2481
I01
sVrating
p2482
F5.0
sVmobile_url
p2483
Vhttp://m.yelp.com/biz/fremont-wine-seattle
p2484
sVrating_img_url
p2485
Vhttp://s3-media1.fl.yelpcdn.com/assets/2/www/img/f1def11e4e79/ico/stars/v1/stars_5.png
p2486
sVreview_count
p2487
I52
sVname
p2488
VFremont Wine
p2489
sVrating_img_url_small
p2490
Vhttp://s3-media1.fl.yelpcdn.com/assets/2/www/img/c7623205d5cd/ico/stars/v1/stars_small_5.png
p2491
sVurl
p2492
Vhttp://www.yelp.com/biz/fremont-wine-seattle
p2493
sVis_closed
p2494
I00
sVphone
p2495
V2066321110
p2496
sVsnippet_text
p2497
VA really great place to try wines from Washington state. You can try flights of whites or reds. Yesterday they had a tasting of Primitivo. This grape...
p2498
sVimage_url
p2499
Vhttp://s3-media4.fl.yelpcdn.com/bphoto/SRGARTiQqFk32Pn-fBdbEQ/ms.jpg
p2500
sVcategories
p2501
(lp2502
(lp2503
VWineries
p2504
aVwineries
p2505
aasVdisplay_phone
p2506
V+1-206-632-1110
p2507
sVrating_img_url_large
p2508
Vhttp://s3-media3.fl.yelpcdn.com/assets/2/www/img/22affc4e6c38/ico/stars/v1/stars_large_5.png
p2509
sVid
p2510
Vfremont-wine-seattle
p2511
sVsnippet_image_url
p2512
Vhttp://s3-media1.fl.yelpcdn.com/photo/F0pX5MPXjeVFWpWwldcgiA/ms.jpg
p2513
sVlocation
p2514
(dp2515
Vcross_streets
p2516
V38th St & 36th St
p2517
sVcity
p2518
VSeattle
p2519
sVdisplay_address
p2520
(lp2521
V3601 Fremont Ave N
p2522
aVSte 212
p2523
aVFremont
p2524
aVSeattle, WA 98103
p2525
asVgeo_accuracy
p2526
F9.5
sVneighborhoods
p2527
(lp2528
VFremont
p2529
asVpostal_code
p2530
V98103
p2531
sVcountry_code
p2532
VUS
p2533
sVaddress
p2534
(lp2535
V3601 Fremont Ave N
p2536
aVSte 212
p2537
asVcoordinate
p2538
(dp2539
Vlatitude
p2540
F47.6516377
sVlongitude
p2541
F-122.3501483
ssVstate_code
p2542
VWA
p2543
ssa(dp2544
Vis_claimed
p2545
I00
sVrating
p2546
F5.0
sVmobile_url
p2547
Vhttp://m.yelp.com/biz/mendozas-mexican-mercado-seattle
p2548
sVrating_img_url
p2549
Vhttp://s3-media1.fl.yelpcdn.com/assets/2/www/img/f1def11e4e79/ico/stars/v1/stars_5.png
p2550
sVreview_count
p2551
I24
sVname
p2552
VMendoza's Mexican Mercado
p2553
sVrating_img_url_small
p2554
Vhttp://s3-media1.fl.yelpcdn.com/assets/2/www/img/c7623205d5cd/ico/stars/v1/stars_small_5.png
p2555
sVurl
p2556
Vhttp://www.yelp.com/biz/mendozas-mexican-mercado-seattle
p2557
sVis_closed
p2558
I00
sVphone
p2559
V2062451089
p2560
sVsnippet_text
p2561
VTheir weekend food is simply amazing. Whether you choose a gordita, barbacoa tacos, carnitas tacos, or lamb stew ("consom de barbacoa"), you can't go...
p2562
sVimage_url
p2563
Vhttp://s3-media4.fl.yelpcdn.com/bphoto/Z2xegkjGUrNDEtK6a78vaQ/ms.jpg
p2564
sVcategories
p2565
(lp2566
(lp2567
VMexican
p2568
aVmexican
p2569
aa(lp2570
VGrocery
p2571
aVgrocery
p2572
aa(lp2573
VEthnic Food
p2574
aVethnicmarkets
p2575
aasVdisplay_phone
p2576
V+1-206-245-1089
p2577
sVrating_img_url_large
p2578
Vhttp://s3-media3.fl.yelpcdn.com/assets/2/www/img/22affc4e6c38/ico/stars/v1/stars_large_5.png
p2579
sVid
p2580
Vmendozas-mexican-mercado-seattle
p2581
sVsnippet_image_url
p2582
Vhttp://s3-media3.fl.yelpcdn.com/photo/s0L4uJo5xikfAVJHVN2M_g/ms.jpg
p2583
sVlocation
p2584
(dp2585
Vcross_streets
p2586
V78th St & 79th St
p2587
sVcity
p2588
VSeattle
p2589
sVdisplay_address
p2590
(lp2591
V7811 Aurora Ave N
p2592
aVPhinney Ridge
p2593
aVSeattle, WA 98103
p2594
asVgeo_accuracy
p2595
F8.0
sVneighborhoods
p2596
(lp2597
VPhinney Ridge
p2598
aVGreenwood
p2599
asVpostal_code
p2600
V98103
p2601
sVcountry_code
p2602
VUS
p2603
sVaddress
p2604
(lp2605
V7811 Aurora Ave N
p2606
asVcoordinate
p2607
(dp2608
Vlatitude
p2609
F47.6860085
sVlongitude
p2610
F-122.3449097
ssVstate_code
p2611
VWA
p2612
ssa(dp2613
Vis_claimed
p2614
I01
sVrating
p2615
F4.5
sVmobile_url
p2616
Vhttp://m.yelp.com/biz/vegan-haven-seattle-2
p2617
sVrating_img_url
p2618
Vhttp://s3-media2.fl.yelpcdn.com/assets/2/www/img/99493c12711e/ico/stars/v1/stars_4_half.png
p2619
sVreview_count
p2620
I125
sVname
p2621
VVegan Haven
p2622
sVrating_img_url_small
p2623
Vhttp://s3-media2.fl.yelpcdn.com/assets/2/www/img/a5221e66bc70/ico/stars/v1/stars_small_4_half.png
p2624
sVurl
p2625
Vhttp://www.yelp.com/biz/vegan-haven-seattle-2
p2626
sVis_closed
p2627
I00
sVphone
p2628
V2065239060
p2629
sVsnippet_text
p2630
VVegan Haven is an unassuming gem in Seattle's U-District!  It puts on no frills, and in fact, from the outside, actually looks pretty drab.  The inside is a...
p2631
sVimage_url
p2632
Vhttp://s3-media2.fl.yelpcdn.com/bphoto/-GmZI76ByXR9YvZEgNMQ4Q/ms.jpg
p2633
sVcategories
p2634
(lp2635
(lp2636
VSpecialty Food
p2637
aVgourmet
p2638
aa(lp2639
VGrocery
p2640
aVgrocery
p2641
aa(lp2642
VVegan
p2643
aVvegan
p2644
aasVdisplay_phone
p2645
V+1-206-523-9060
p2646
sVrating_img_url_large
p2647
Vhttp://s3-media4.fl.yelpcdn.com/assets/2/www/img/9f83790ff7f6/ico/stars/v1/stars_large_4_half.png
p2648
sVid
p2649
Vvegan-haven-seattle-2
p2650
sVsnippet_image_url
p2651
Vhttp://s3-media3.fl.yelpcdn.com/photo/VFMsuT5FiGdwiQVapquN_w/ms.jpg
p2652
sVlocation
p2653
(dp2654
Vcity
p2655
VSeattle
p2656
sVdisplay_address
p2657
(lp2658
V5270 B University Way NE
p2659
aVUniversity District
p2660
aVSeattle, WA 98105
p2661
asVgeo_accuracy
p2662
F8.0
sVneighborhoods
p2663
(lp2664
VUniversity District
p2665
asVpostal_code
p2666
V98105
p2667
sVcountry_code
p2668
VUS
p2669
sVaddress
p2670
(lp2671
V5270 B University Way NE
p2672
asVcoordinate
p2673
(dp2674
Vlatitude
p2675
F47.668377
sVlongitude
p2676
F-122.312668
ssVstate_code
p2677
VWA
p2678
ssa(dp2679
Vis_claimed
p2680
I01
sVrating
p2681
F4.5
sVmobile_url
p2682
Vhttp://m.yelp.com/biz/theo-chocolate-seattle
p2683
sVrating_img_url
p2684
Vhttp://s3-media2.fl.yelpcdn.com/assets/2/www/img/99493c12711e/ico/stars/v1/stars_4_half.png
p2685
sVreview_count
p2686
I581
sVname
p2687
VTheo Chocolate
p2688
sVrating_img_url_small
p2689
Vhttp://s3-media2.fl.yelpcdn.com/assets/2/www/img/a5221e66bc70/ico/stars/v1/stars_small_4_half.png
p2690
sVurl
p2691
Vhttp://www.yelp.com/biz/theo-chocolate-seattle
p2692
sVis_closed
p2693
I00
sVid
p2694
Vtheo-chocolate-seattle
p2695
sVphone
p2696
V2066325100
p2697
sVsnippet_text
p2698
VDescriptive phrase: fun and informative chocolate tour.\u000a\u000aI've been on Theo Chocolate's tour twice now, two years apart, and can say they're still offering a...
p2699
sVimage_url
p2700
Vhttp://s3-media4.fl.yelpcdn.com/bphoto/bBgtED3rtmwhJryt0pzkEg/ms.jpg
p2701
sVcategories
p2702
(lp2703
(lp2704
VChocolatiers & Shops
p2705
aVchocolate
p2706
aa(lp2707
VCandy Stores
p2708
aVcandy
p2709
aasVdisplay_phone
p2710
V+1-206-632-5100
p2711
sVrating_img_url_large
p2712
Vhttp://s3-media4.fl.yelpcdn.com/assets/2/www/img/9f83790ff7f6/ico/stars/v1/stars_large_4_half.png
p2713
sVmenu_provider
p2714
Vsingle_platform
p2715
sVmenu_date_updated
p2716
I1387625990
sVsnippet_image_url
p2717
Vhttp://s3-media1.fl.yelpcdn.com/photo/NCO3F680hh10svqE9pMDzA/ms.jpg
p2718
sVlocation
p2719
(dp2720
Vcross_streets
p2721
VCanal St & 35th St
p2722
sVcity
p2723
VSeattle
p2724
sVdisplay_address
p2725
(lp2726
V3400 Phinney Ave N
p2727
aVFremont
p2728
aVSeattle, WA 98103
p2729
asVgeo_accuracy
p2730
F8.0
sVneighborhoods
p2731
(lp2732
VFremont
p2733
asVpostal_code
p2734
V98103
p2735
sVcountry_code
p2736
VUS
p2737
sVaddress
p2738
(lp2739
V3400 Phinney Ave N
p2740
asVcoordinate
p2741
(dp2742
Vlatitude
p2743
F47.650879
sVlongitude
p2744
F-122.354103
ssVstate_code
p2745
VWA
p2746
ssa(dp2747
Vis_claimed
p2748
I01
sVrating
p2749
F4.5
sVmobile_url
p2750
Vhttp://m.yelp.com/biz/take-5-urban-market-seattle
p2751
sVrating_img_url
p2752
Vhttp://s3-media2.fl.yelpcdn.com/assets/2/www/img/99493c12711e/ico/stars/v1/stars_4_half.png
p2753
sVreview_count
p2754
I144
sVname
p2755
VTake 5 Urban Market
p2756
sVrating_img_url_small
p2757
Vhttp://s3-media2.fl.yelpcdn.com/assets/2/www/img/a5221e66bc70/ico/stars/v1/stars_small_4_half.png
p2758
sVurl
p2759
Vhttp://www.yelp.com/biz/take-5-urban-market-seattle
p2760
sVis_closed
p2761
I00
sVphone
p2762
V2064208104
p2763
sVsnippet_text
p2764
VYummy yummy comfort food and a mini  upscale convenience store all in one!  We love their mac n cheese, but also can't get enough of their desserts...
p2765
sVimage_url
p2766
Vhttp://s3-media2.fl.yelpcdn.com/bphoto/l9uwYXWfwIcQtnOyWazNYg/ms.jpg
p2767
sVcategories
p2768
(lp2769
(lp2770
VDelis
p2771
aVdelis
p2772
aa(lp2773
VConvenience Stores
p2774
aVconvenience
p2775
aa(lp2776
VGrocery
p2777
aVgrocery
p2778
aasVdisplay_phone
p2779
V+1-206-420-8104
p2780
sVrating_img_url_large
p2781
Vhttp://s3-media4.fl.yelpcdn.com/assets/2/www/img/9f83790ff7f6/ico/stars/v1/stars_large_4_half.png
p2782
sVid
p2783
Vtake-5-urban-market-seattle
p2784
sVsnippet_image_url
p2785
Vhttp://s3-media4.fl.yelpcdn.com/photo/SENS3eaJcPPbqOcVWBVIXQ/ms.jpg
p2786
sVlocation
p2787
(dp2788
Vcross_streets
p2789
V67th St & 70th St
p2790
sVcity
p2791
VSeattle
p2792
sVdisplay_address
p2793
(lp2794
V6757 8th Ave NW
p2795
aVPhinney Ridge
p2796
aVSeattle, WA 98117
p2797
asVgeo_accuracy
p2798
F8.0
sVneighborhoods
p2799
(lp2800
VPhinney Ridge
p2801
aVBallard
p2802
asVpostal_code
p2803
V98117
p2804
sVcountry_code
p2805
VUS
p2806
sVaddress
p2807
(lp2808
V6757 8th Ave NW
p2809
asVcoordinate
p2810
(dp2811
Vlatitude
p2812
F47.67939
sVlongitude
p2813
F-122.3662567
ssVstate_code
p2814
VWA
p2815
ssasba.